
freq_meter_nios.elf:     file format elf32-littlenios2
freq_meter_nios.elf
architecture: nios2:r1, flags 0x00000112:
EXEC_P, HAS_SYMS, D_PAGED
start address 0x00800254

Program Header:
    LOAD off    0x00001000 vaddr 0x00800000 paddr 0x00800000 align 2**12
         filesz 0x00000020 memsz 0x00000020 flags r-x
    LOAD off    0x00001020 vaddr 0x00800020 paddr 0x00800020 align 2**12
         filesz 0x00008f70 memsz 0x00008f70 flags r-x
    LOAD off    0x00009f90 vaddr 0x00808f90 paddr 0x0080a2a4 align 2**12
         filesz 0x00001314 memsz 0x00001314 flags rw-
    LOAD off    0x0000b5b8 vaddr 0x0080b5b8 paddr 0x0080b5b8 align 2**12
         filesz 0x00000000 memsz 0x0003d2c8 flags rw-

Sections:
Idx Name          Size      VMA       LMA       File off  Algn
  0 .entry        00000020  00800000  00800000  00001000  2**5
                  CONTENTS, ALLOC, LOAD, READONLY, CODE
  1 .exceptions   00000234  00800020  00800020  00001020  2**2
                  CONTENTS, ALLOC, LOAD, READONLY, CODE
  2 .text         00008bf4  00800254  00800254  00001254  2**2
                  CONTENTS, ALLOC, LOAD, READONLY, CODE
  3 .rodata       00000148  00808e48  00808e48  00009e48  2**2
                  CONTENTS, ALLOC, LOAD, READONLY, DATA
  4 .rwdata       00001314  00808f90  0080a2a4  00009f90  2**2
                  CONTENTS, ALLOC, LOAD, DATA, SMALL_DATA
  5 .bss          0003d372  0080b5b8  0080b5b8  0000b5b8  2**2
                  ALLOC, SMALL_DATA
  6 .sdram        00000000  00848880  00848880  0000b2a4  2**0
                  CONTENTS
  7 .onchip_memory2_0 00000000  01080000  01080000  0000b2a4  2**0
                  CONTENTS
  8 .comment      00000023  00000000  00000000  0000b2a4  2**0
                  CONTENTS, READONLY
  9 .debug_aranges 00000758  00000000  00000000  0000b2c8  2**3
                  CONTENTS, READONLY, DEBUGGING
 10 .debug_info   0000e0da  00000000  00000000  0000ba20  2**0
                  CONTENTS, READONLY, DEBUGGING
 11 .debug_abbrev 00003fc6  00000000  00000000  00019afa  2**0
                  CONTENTS, READONLY, DEBUGGING
 12 .debug_line   000057d1  00000000  00000000  0001dac0  2**0
                  CONTENTS, READONLY, DEBUGGING
 13 .debug_frame  0000226c  00000000  00000000  00023294  2**2
                  CONTENTS, READONLY, DEBUGGING
 14 .debug_str    00003600  00000000  00000000  00025500  2**0
                  CONTENTS, READONLY, DEBUGGING
 15 .debug_loc    00001877  00000000  00000000  00028b00  2**0
                  CONTENTS, READONLY, DEBUGGING
 16 .debug_alt_sim_info 00000030  00000000  00000000  0002a378  2**2
                  CONTENTS, READONLY, DEBUGGING
 17 .debug_ranges 000002e8  00000000  00000000  0002a3a8  2**3
                  CONTENTS, READONLY, DEBUGGING
 18 .thread_model 00000003  00000000  00000000  0002dc32  2**0
                  CONTENTS, READONLY
 19 .cpu          0000000c  00000000  00000000  0002dc35  2**0
                  CONTENTS, READONLY
 20 .qsys         00000001  00000000  00000000  0002dc41  2**0
                  CONTENTS, READONLY
 21 .simulation_enabled 00000001  00000000  00000000  0002dc42  2**0
                  CONTENTS, READONLY
 22 .sysid_hash   00000004  00000000  00000000  0002dc43  2**0
                  CONTENTS, READONLY
 23 .sysid_base   00000004  00000000  00000000  0002dc47  2**0
                  CONTENTS, READONLY
 24 .sysid_time   00000004  00000000  00000000  0002dc4b  2**0
                  CONTENTS, READONLY
 25 .stderr_dev   0000000b  00000000  00000000  0002dc4f  2**0
                  CONTENTS, READONLY
 26 .stdin_dev    0000000b  00000000  00000000  0002dc5a  2**0
                  CONTENTS, READONLY
 27 .stdout_dev   0000000b  00000000  00000000  0002dc65  2**0
                  CONTENTS, READONLY
 28 .sopc_system_name 00000013  00000000  00000000  0002dc70  2**0
                  CONTENTS, READONLY
 29 .quartus_project_dir 00000045  00000000  00000000  0002dc83  2**0
                  CONTENTS, READONLY
 30 .jdi          0000483f  00000000  00000000  0002dcc8  2**0
                  CONTENTS, READONLY
 31 .sopcinfo     00077244  00000000  00000000  00032507  2**0
                  CONTENTS, READONLY
SYMBOL TABLE:
00800000 l    d  .entry	00000000 .entry
00800020 l    d  .exceptions	00000000 .exceptions
00800254 l    d  .text	00000000 .text
00808e48 l    d  .rodata	00000000 .rodata
00808f90 l    d  .rwdata	00000000 .rwdata
0080b5b8 l    d  .bss	00000000 .bss
00848880 l    d  .sdram	00000000 .sdram
01080000 l    d  .onchip_memory2_0	00000000 .onchip_memory2_0
00000000 l    d  .comment	00000000 .comment
00000000 l    d  .debug_aranges	00000000 .debug_aranges
00000000 l    d  .debug_info	00000000 .debug_info
00000000 l    d  .debug_abbrev	00000000 .debug_abbrev
00000000 l    d  .debug_line	00000000 .debug_line
00000000 l    d  .debug_frame	00000000 .debug_frame
00000000 l    d  .debug_str	00000000 .debug_str
00000000 l    d  .debug_loc	00000000 .debug_loc
00000000 l    d  .debug_alt_sim_info	00000000 .debug_alt_sim_info
00000000 l    d  .debug_ranges	00000000 .debug_ranges
00000000 l    df *ABS*	00000000 ../freq_meter_nios_bsp//obj/HAL/src/crt0.o
0080029c l       .text	00000000 alt_after_alt_main
00000000 l    df *ABS*	00000000 obj/default/Source/portable/GCC/NiosII/port_asm.o
00800020 l       .exceptions	00000000 save_context
0080009c l       .exceptions	00000000 save_sp_to_pxCurrentTCB
008000ac l       .exceptions	00000000 hw_irq_test
00800150 l       .exceptions	00000000 soft_exceptions
008000c0 l       .exceptions	00000000 hw_irq_handler
008000d4 l       .exceptions	00000000 restore_context
0080016c l       .exceptions	00000000 call_scheduler
00000000 l    df *ABS*	00000000 alt_irq_handler.c
00000000 l    df *ABS*	00000000 croutine.c
00000000 l    df *ABS*	00000000 event_groups.c
00800930 l     F .text	00000070 prvTestWaitCondition
00000000 l    df *ABS*	00000000 list.c
00000000 l    df *ABS*	00000000 port.c
00800c30 l     F .text	0000002c prvReadGp
00800d94 l     F .text	0000009c prvSetupTimerInterrupt
00000000 l    df *ABS*	00000000 heap_1.c
0080b628 l     O .bss	0003d090 ucHeap
0080b5b8 l     O .bss	00000004 xNextFreeByte
0080b5bc l     O .bss	00000004 pucAlignedHeap.2618
00000000 l    df *ABS*	00000000 queue.c
008012fc l     F .text	00000084 prvInitialiseNewQueue
00801380 l     F .text	00000060 prvInitialiseMutex
00802164 l     F .text	0000018c prvCopyDataToQueue
00802518 l     F .text	00000058 prvIsQueueFull
0080238c l     F .text	000000f4 prvUnlockQueue
008022f0 l     F .text	0000009c prvCopyDataFromQueue
00802480 l     F .text	00000050 prvIsQueueEmpty
00802114 l     F .text	00000050 prvGetDisinheritPriorityAfterTimeout
00000000 l    df *ABS*	00000000 stream_buffer.c
008033e4 l     F .text	00000080 prvInitialiseNewStreamBuffer
00803370 l     F .text	00000074 prvBytesInBuffer
00802b18 l     F .text	000000d4 prvWriteMessageToBuffer
00803168 l     F .text	000000f4 prvWriteBytesToBuffer
00802ed0 l     F .text	000000bc prvReadMessageFromBuffer
0080325c l     F .text	00000114 prvReadBytesFromBuffer
00000000 l    df *ABS*	00000000 tasks.c
008486b8 l     O .bss	00000064 pxReadyTasksLists
0084871c l     O .bss	00000014 xDelayedTaskList1
00848730 l     O .bss	00000014 xDelayedTaskList2
0080b5c4 l     O .bss	00000004 pxDelayedTaskList
0080b5c8 l     O .bss	00000004 pxOverflowDelayedTaskList
00848744 l     O .bss	00000014 xPendingReadyList
00848758 l     O .bss	00000014 xTasksWaitingTermination
0080b5cc l     O .bss	00000004 uxDeletedTasksWaitingCleanUp
0084876c l     O .bss	00000014 xSuspendedTaskList
0080b5d0 l     O .bss	00000004 uxCurrentNumberOfTasks
0080b5d4 l     O .bss	00000004 xTickCount
0080b5d8 l     O .bss	00000004 uxTopReadyPriority
0080b5dc l     O .bss	00000004 xSchedulerRunning
0080b5e0 l     O .bss	00000004 xPendedTicks
0080b5e4 l     O .bss	00000004 xYieldPending
0080b5e8 l     O .bss	00000004 xNumOfOverflows
0080b5ec l     O .bss	00000004 uxTaskNumber
0080b5f0 l     O .bss	00000004 xNextTaskUnblockTime
0080b5f4 l     O .bss	00000004 xIdleTaskHandle
0080b5f8 l     O .bss	00000004 uxSchedulerSuspended
0080354c l     F .text	000001e4 prvInitialiseNewTask
00803730 l     F .text	000000fc prvAddNewTaskToReadyList
008049bc l     F .text	000000b8 prvInitialiseTaskLists
00804bb8 l     F .text	00000044 prvDeleteTCB
00804bfc l     F .text	00000054 prvResetNextTaskUnblockTime
00805868 l     F .text	000000e8 prvAddCurrentTaskToDelayedList
00803da4 l     F .text	0000006c prvTaskIsTaskSuspended
008049a0 l     F .text	0000001c prvIdleTask
00804a74 l     F .text	00000080 prvCheckTasksWaitingTermination
00804af4 l     F .text	00000064 prvTaskCheckFreeStackSpace
00000000 l    df *ABS*	00000000 timers.c
00000000 l    df *ABS*	00000000 main.c
00805950 l     F .text	0000004c set_output
0080599c l     F .text	00000064 enable
00805a00 l     F .text	00000094 read_busy
00805a94 l     F .text	00000080 write
00000000 l    df *ABS*	00000000 memcpy.c
00000000 l    df *ABS*	00000000 memset.c
00000000 l    df *ABS*	00000000 puts.c
00000000 l    df *ABS*	00000000 strlen.c
00000000 l    df *ABS*	00000000 vsprintf.c
00000000 l    df *ABS*	00000000 fvwrite_small_dev.c
00000000 l    df *ABS*	00000000 fvwrite_small_str.c
00000000 l    df *ABS*	00000000 impure.c
00808f90 l     O .rwdata	000000e0 impure_data
00000000 l    df *ABS*	00000000 memmove.c
00000000 l    df *ABS*	00000000 vfprintf.c
00806950 l     F .text	0000006c print_repeat
00000000 l    df *ABS*	00000000 writer.c
00000000 l    df *ABS*	00000000 int_errno.c
00000000 l    df *ABS*	00000000 lib2-divmod.c
00000000 l    df *ABS*	00000000 alt_irq_vars.c
00000000 l    df *ABS*	00000000 alt_load.c
00807108 l     F .text	00000068 alt_load_section
00000000 l    df *ABS*	00000000 alt_main.c
00000000 l    df *ABS*	00000000 alt_putstr.c
00000000 l    df *ABS*	00000000 alt_write.c
008072a4 l     F .text	00000050 alt_get_errno
00000000 l    df *ABS*	00000000 alt_sys_init.c
008073ec l     F .text	00000038 alt_dev_reg
00809070 l     O .rwdata	00001060 jtag_uart_0
00000000 l    df *ABS*	00000000 altera_avalon_jtag_uart_fd.c
00000000 l    df *ABS*	00000000 altera_avalon_jtag_uart_init.c
008076c8 l     F .text	00000210 altera_avalon_jtag_uart_irq
008078d8 l     F .text	000000a8 altera_avalon_jtag_uart_timeout
00000000 l    df *ABS*	00000000 altera_avalon_jtag_uart_ioctl.c
00000000 l    df *ABS*	00000000 altera_avalon_jtag_uart_read.c
00000000 l    df *ABS*	00000000 altera_avalon_jtag_uart_write.c
00000000 l    df *ABS*	00000000 alt_alarm_start.c
00000000 l    df *ABS*	00000000 alt_close.c
00808058 l     F .text	00000050 alt_get_errno
00000000 l    df *ABS*	00000000 alt_dcache_flush_all.c
00000000 l    df *ABS*	00000000 alt_dev.c
008081c0 l     F .text	0000002c alt_dev_null_write
00000000 l    df *ABS*	00000000 alt_dev_llist_insert.c
008081ec l     F .text	00000050 alt_get_errno
00000000 l    df *ABS*	00000000 alt_errno.c
00000000 l    df *ABS*	00000000 alt_icache_flush_all.c
00000000 l    df *ABS*	00000000 alt_io_redirect.c
00808314 l     F .text	000000c4 alt_open_fd
00000000 l    df *ABS*	00000000 alt_open.c
00808454 l     F .text	00000050 alt_get_errno
008084a4 l     F .text	000000cc alt_file_locked
00000000 l    df *ABS*	00000000 alt_release_fd.c
00000000 l    df *ABS*	00000000 alt_tick.c
00000000 l    df *ABS*	00000000 altera_nios2_gen2_irq.c
00000000 l    df *ABS*	00000000 alt_find_dev.c
00000000 l    df *ABS*	00000000 alt_find_file.c
00000000 l    df *ABS*	00000000 alt_get_fd.c
00000000 l    df *ABS*	00000000 alt_icache_flush.c
00000000 l    df *ABS*	00000000 exit.c
00000000 l    df *ABS*	00000000 fputs.c
00000000 l    df *ABS*	00000000 memcmp.c
00000000 l    df *ABS*	00000000 __call_atexit.c
00000000 l    df *ABS*	00000000 alt_exit.c
008071f4 g     F .text	0000006c alt_main
00806668 g     F .text	00000080 _puts_r
00848780 g     O .bss	00000100 alt_irq
008000c4 g       .exceptions	00000000 restore_sp_from_pxCurrentTCB
008045f0 g     F .text	00000064 vTaskPlaceOnUnorderedEventList
00801124 g     F .text	0000002c xPortGetFreeHeapSize
00800688 g     F .text	0000003c xEventGroupGetBitsFromISR
0080a2a4 g       *ABS*	00000000 __flash_rwdata_start
00803a60 g     F .text	00000058 uxTaskPriorityGet
00806774 g     F .text	0000001c vsprintf
00802bec g     F .text	00000158 xStreamBufferReceive
00805ba8 g     F .text	00000094 hd44780_home
008002f4 g     F .text	00000184 xEventGroupSync
008068f0 g     F .text	00000060 memmove
00804ff4 g     F .text	00000054 vTaskEnterCritical
00801774 g     F .text	000000f4 xQueueGenericSendFromISR
0080428c g     F .text	00000040 pcTaskGetName
0080b5fc g     O .bss	00000004 n
0080b600 g     O .bss	00000004 Queue_lcd_rs
008027d8 g     F .text	00000088 xStreamBufferSpacesAvailable
00807260 g     F .text	00000044 alt_putstr
008088d0 g     F .text	00000024 altera_nios2_gen2_irq_init
008026d0 g     F .text	0000009c xStreamBufferReset
00806848 g     F .text	000000a8 __sfvwrite_small_str
00800000 g     F .entry	0000001c __reset
0080143c g     F .text	00000090 xQueueGiveMutexRecursive
0080b5c0 g     O .bss	00000004 pxCurrentTCB
00800020 g       *ABS*	00000000 __flash_exceptions_start
0080b60c g     O .bss	00000004 errno
00802a28 g     F .text	000000f0 xStreamBufferSendFromISR
0080b618 g     O .bss	00000004 alt_argv
00812278 g       *ABS*	00000000 _gp
00803b04 g     F .text	000001a4 vTaskPrioritySet
0080485c g     F .text	0000003c vTaskInternalSetTimeOutState
00800478 g     F .text	000001a8 xEventGroupWaitBits
0080611c g     F .text	00000174 hd44780_init
0080a0f8 g     O .rwdata	00000180 alt_fd_list
00805c3c g     F .text	000000d4 hd44780_display
00800d3c g     F .text	00000038 xPortStartScheduler
008057f0 g     F .text	00000078 ulTaskNotifyValueClear
0080404c g     F .text	00000048 vTaskEndScheduler
008088f4 g     F .text	00000090 alt_find_dev
00806620 g     F .text	00000028 memcpy
008045a0 g     F .text	00000050 vTaskPlaceOnEventList
00804748 g     F .text	000000c8 vTaskRemoveFromUnorderedEventList
008083d8 g     F .text	0000007c alt_io_redirect
00801f90 g     F .text	0000007c xQueuePeekFromISR
008066e8 g     F .text	00000014 puts
008010dc g     F .text	00000024 vPortFree
00801aec g     F .text	00000210 xQueueSemaphoreTake
00807ad8 g     F .text	0000021c altera_avalon_jtag_uart_read
00805fc4 g     F .text	0000009c hd44780_print
01080000 g       *ABS*	00000000 __alt_mem_onchip_memory2_0
0080704c g     F .text	00000064 .hidden __udivsi3
00804b58 g     F .text	00000060 uxTaskGetStackHighWaterMark
00800a34 g     F .text	0000008c vListInsertEnd
00808b4c g     F .text	00000090 alt_icache_flush
008063f0 g     F .text	00000100 freq_to_lcd
008002a0 g     F .text	00000054 xEventGroupCreate
008008b8 g     F .text	0000003c vEventGroupSetBitsCallback
00803edc g     F .text	000000e0 xTaskResumeFromISR
00800a08 g     F .text	0000002c vListInitialiseItem
0080a294 g     O .rwdata	00000004 alt_max_fd
00800e30 g     F .text	0000004c vPortSysTickHandler
00801944 g     F .text	000001a8 xQueueReceive
00803ab8 g     F .text	0000004c uxTaskPriorityGetFromISR
00800e7c g     F .text	000001a0 alt_irq_register
0080a278 g     O .rwdata	00000004 _global_impure_ptr
008006c4 g     F .text	00000180 xEventGroupSetBits
00848880 g       *ABS*	00000000 __bss_end
008087c8 g     F .text	00000108 alt_tick
00806324 g     F .text	0000002c sayInBitween
0080101c g     F .text	000000c0 pvPortMalloc
008020d8 g     F .text	0000003c vQueueDelete
00800d74 g     F .text	00000020 vPortEndScheduler
008009a0 g     F .text	00000068 vListInitialise
00802f8c g     F .text	00000058 xStreamBufferIsEmpty
0080872c g     F .text	0000009c alt_alarm_stop
0080b610 g     O .bss	00000004 alt_irq_active
0080017c g     F .exceptions	000000d8 alt_irq_handler
0080a0d0 g     O .rwdata	00000028 alt_dev_null
00804218 g     F .text	00000028 xTaskGetTickCount
008015c0 g     F .text	000001b4 xQueueGenericSend
008028a0 g     F .text	00000188 xStreamBufferSend
008030e4 g     F .text	00000084 xStreamBufferReceiveCompletedFromISR
00805b14 g     F .text	00000094 hd44780_clear
00808178 g     F .text	00000048 alt_dcache_flush_all
00802d44 g     F .text	000000a8 xStreamBufferNextMessageLengthBytes
00804db8 g     F .text	000000fc xTaskPriorityDisinherit
0080a2a4 g       *ABS*	00000000 __ram_rwdata_end
0080a28c g     O .rwdata	00000008 alt_dev_list
008072f4 g     F .text	000000f8 write
00804654 g     F .text	000000f4 xTaskRemoveFromEventList
00808f90 g       *ABS*	00000000 __ram_rodata_end
00800620 g     F .text	00000068 xEventGroupClearBits
00801cfc g     F .text	000001b0 xQueuePeek
008070b0 g     F .text	00000058 .hidden __umodsi3
00848880 g       *ABS*	00000000 end
00802dec g     F .text	000000e4 xStreamBufferReceiveFromISR
0080382c g     F .text	000000e8 vTaskDelete
0080760c g     F .text	000000bc altera_avalon_jtag_uart_init
008050ec g     F .text	00000038 pvTaskIncrementMutexHeldCount
01000000 g       *ABS*	00000000 __alt_stack_pointer
00807cf4 g     F .text	00000224 altera_avalon_jtag_uart_write
00804898 g     F .text	000000e0 xTaskCheckForTimeOut
00804c78 g     F .text	00000140 xTaskPriorityInherit
00808c84 g     F .text	00000190 __call_exitprocs
0080266c g     F .text	00000064 vStreamBufferDelete
00805124 g     F .text	000000b0 ulTaskNotifyTake
00800254 g     F .text	0000004c _start
00805dfc g     F .text	00000130 hd44780_cgram
0080b620 g     O .bss	00000004 _alt_tick_rate
00804094 g     F .text	0000002c vTaskSuspendAll
00802fe4 g     F .text	0000007c xStreamBufferIsFull
00804240 g     F .text	0000002c xTaskGetTickCountFromISR
0080b624 g     O .bss	00000004 _alt_nticks
0080745c g     F .text	0000004c alt_sys_init
00800b98 g     F .text	00000098 uxListRemove
008025c0 g     F .text	000000ac xStreamBufferGenericCreate
00807980 g     F .text	00000068 altera_avalon_jtag_uart_close
00808f90 g       *ABS*	00000000 __ram_rwdata_start
00808e48 g       *ABS*	00000000 __ram_rodata_start
00805778 g     F .text	00000078 xTaskNotifyStateClear
00803e10 g     F .text	000000cc vTaskResume
008044c8 g     F .text	000000d8 vTaskSwitchContext
008074a8 g     F .text	00000060 altera_avalon_jtag_uart_read_fd
00808a98 g     F .text	000000b4 alt_get_fd
008051d4 g     F .text	000000f4 xTaskNotifyWait
00808c54 g     F .text	00000030 memcmp
00807568 g     F .text	00000050 altera_avalon_jtag_uart_close_fd
00848880 g       *ABS*	00000000 __alt_stack_base
008075b8 g     F .text	00000054 altera_avalon_jtag_uart_ioctl_fd
00803ca8 g     F .text	000000fc vTaskSuspend
008042cc g     F .text	0000004c xTaskCatchUpTicks
0080426c g     F .text	00000020 uxTaskGetNumberOfTasks
00808984 g     F .text	00000114 alt_find_file
0080823c g     F .text	000000a4 alt_dev_llist_insert
008069bc g     F .text	00000524 ___svfprintf_internal_r
008014cc g     F .text	0000009c xQueueTakeMutexRecursive
00800844 g     F .text	00000074 vEventGroupDelete
008052c8 g     F .text	000001ac xTaskGenericNotify
0080b604 g     O .bss	00000004 Queue_lcd_data
00806790 g     F .text	000000b8 __sfvwrite_small_dev
0080b5b8 g       *ABS*	00000000 __bss_start
00805f2c g     F .text	00000098 hd44780_put
00806290 g     F .text	00000094 sayHello
00806648 g     F .text	00000020 memset
008064f0 g     F .text	00000130 main
0080b61c g     O .bss	00000004 alt_envp
00807508 g     F .text	00000060 altera_avalon_jtag_uart_write_fd
00800ac0 g     F .text	000000d8 vListInsert
0080a298 g     O .rwdata	00000004 alt_errno
00803914 g     F .text	000000f0 vTaskDelayUntil
00801eac g     F .text	000000e4 xQueueReceiveFromISR
00804c50 g     F .text	00000028 xTaskGetCurrentTaskHandle
00806f54 g     F .text	00000084 .hidden __divsi3
00801264 g     F .text	00000098 xQueueGenericCreate
00801568 g     F .text	00000058 xQueueCreateCountingSemaphore
00808e48 g       *ABS*	00000000 __flash_rodata_start
0080276c g     F .text	0000006c xStreamBufferSetTriggerLevel
00805474 g     F .text	000001e4 xTaskGenericNotifyFromISR
00807424 g     F .text	00000038 alt_irq_init
008086c8 g     F .text	00000064 alt_release_fd
008040c0 g     F .text	00000158 xTaskResumeAll
0080204c g     F .text	00000054 uxQueueSpacesAvailable
00803fbc g     F .text	00000090 vTaskStartScheduler
00806efc g     F .text	00000058 _write_r
00806718 g     F .text	0000005c _vsprintf_r
00802570 g     F .text	00000050 xQueueIsQueueFullFromISR
0080a27c g     O .rwdata	00000004 _impure_ptr
0080b614 g     O .bss	00000004 alt_argc
00804978 g     F .text	00000028 vTaskMissedYield
0080a284 g     O .rwdata	00000008 alt_fs_list
00806ee0 g     F .text	0000001c __vfprintf_internal_unused
0080200c g     F .text	00000040 uxQueueMessagesWaiting
00804318 g     F .text	000001b0 xTaskIncrementTick
00800020 g       *ABS*	00000000 __ram_exceptions_start
00806060 g     F .text	000000bc hd44780_printf
00801150 g     F .text	00000114 xQueueGenericReset
0080a2a4 g       *ABS*	00000000 _edata
00848880 g       *ABS*	00000000 _end
00800254 g       *ABS*	00000000 __ram_exceptions_end
008079e8 g     F .text	000000f0 altera_avalon_jtag_uart_ioctl
00803464 g     F .text	000000e8 xTaskCreate
00801100 g     F .text	00000024 vPortInitialiseBlocks
00808bdc g     F .text	00000020 exit
00806fd8 g     F .text	00000074 .hidden __modsi3
00803a04 g     F .text	0000005c vTaskDelay
01000000 g       *ABS*	00000000 __alt_data_end
00800000 g       *ABS*	00000000 __alt_mem_sdram
00804eb4 g     F .text	00000140 vTaskPriorityDisinheritAfterTimeout
00808e14 g     F .text	00000034 _exit
00807f18 g     F .text	00000140 alt_alarm_start
00806350 g     F .text	000000a0 task_lcd_write
00805048 g     F .text	00000060 vTaskExitCritical
008066fc g     F .text	0000001c strlen
00800c5c g     F .text	000000e0 pxPortInitialiseStack
00808570 g     F .text	00000158 open
00805d10 g     F .text	000000ec hd44780_position
008082e0 g     F .text	00000034 alt_icache_flush_all
00804810 g     F .text	0000004c vTaskSetTimeOutState
00808bfc g     F .text	00000058 fputs
0080a280 g     O .rwdata	00000004 alt_priority_mask
0080b608 g     O .bss	00000004 Mutex_write_lcd
008020a0 g     F .text	00000038 uxQueueMessagesWaitingFromISR
008024d0 g     F .text	00000048 xQueueIsQueueEmptyFromISR
00802860 g     F .text	00000040 xStreamBufferBytesAvailable
0080a29c g     O .rwdata	00000008 alt_alarm_list
008050a8 g     F .text	00000044 uxTaskResetEventItemValue
008013e0 g     F .text	0000005c xQueueCreateMutex
008080a8 g     F .text	000000d0 close
00805658 g     F .text	00000120 vTaskNotifyGiveFromISR
00807170 g     F .text	00000084 alt_load
008008f4 g     F .text	0000003c vEventGroupClearBitsCallback
00803060 g     F .text	00000084 xStreamBufferSendCompletedFromISR
00801868 g     F .text	000000dc xQueueGiveFromISR



Disassembly of section .entry:

00800000 <__reset>:
#if NIOS2_ICACHE_SIZE > 0 && defined(ALT_ALLOW_CODE_AT_RESET) && (!defined(ALT_SIM_OPTIMIZE) || defined(NIOS2_ECC_PRESENT))
    /* Assume the instruction cache size is always a power of two. */
#if NIOS2_ICACHE_SIZE > 0x8000
    movhi r2, %hi(NIOS2_ICACHE_SIZE)
#else
    movui r2, NIOS2_ICACHE_SIZE
  800000:	00840014 	movui	r2,4096
#endif

0:
    initi r2
  800004:	1001483a 	initi	r2
    addi r2, r2, -NIOS2_ICACHE_LINE_SIZE
  800008:	10bff804 	addi	r2,r2,-32
    bgt r2, zero, 0b
  80000c:	00bffd16 	blt	zero,r2,800004 <__alt_mem_onchip_memory2_0+0xff780004>
 * Jump to the _start entry point in the .text section if reset code
 * is allowed or if optimizing for RTL simulation.
 */
#if defined(ALT_ALLOW_CODE_AT_RESET) || defined(ALT_SIM_OPTIMIZE)
    /* Jump to the _start entry point in the .text section. */
    movhi r1, %hi(_start)
  800010:	00402034 	movhi	at,128
    ori r1, r1, %lo(_start)
  800014:	08409514 	ori	at,at,596
    jmp r1
  800018:	0800683a 	jmp	at
  80001c:	00000000 	call	0 <__alt_mem_sdram-0x800000>

Disassembly of section .exceptions:

00800020 <save_context>:
# Entry point for exceptions.
.section .exceptions.entry, "xa"		

# Save the entire context of a task.
save_context:
	addi	ea, ea, -4			# Point to the next instruction.
  800020:	ef7fff04 	addi	ea,ea,-4
	addi	sp,	sp, -116		# Create space on the stack.
  800024:	deffe304 	addi	sp,sp,-116
	stw		ra, 0(sp)
  800028:	dfc00015 	stw	ra,0(sp)
								# Leave a gap for muldiv 0
	stw		at, 8(sp)		 
  80002c:	d8400215 	stw	at,8(sp)
	stw		r2, 12(sp)
  800030:	d8800315 	stw	r2,12(sp)
	stw		r3, 16(sp)
  800034:	d8c00415 	stw	r3,16(sp)
	stw		r4, 20(sp)
  800038:	d9000515 	stw	r4,20(sp)
	stw		r5, 24(sp) 
  80003c:	d9400615 	stw	r5,24(sp)
	stw		r6, 28(sp) 
  800040:	d9800715 	stw	r6,28(sp)
	stw		r7, 32(sp) 
  800044:	d9c00815 	stw	r7,32(sp)
	stw		r8, 36(sp) 
  800048:	da000915 	stw	r8,36(sp)
	stw		r9, 40(sp) 
  80004c:	da400a15 	stw	r9,40(sp)
	stw		r10, 44(sp)
  800050:	da800b15 	stw	r10,44(sp)
	stw		r11, 48(sp)
  800054:	dac00c15 	stw	r11,48(sp)
	stw		r12, 52(sp)
  800058:	db000d15 	stw	r12,52(sp)
	stw		r13, 56(sp)
  80005c:	db400e15 	stw	r13,56(sp)
	stw		r14, 60(sp)
  800060:	db800f15 	stw	r14,60(sp)
	stw		r15, 64(sp)
  800064:	dbc01015 	stw	r15,64(sp)
	rdctl	r5, estatus 		# Save the eStatus
  800068:	000b307a 	rdctl	r5,estatus
	stw		r5, 68(sp)
  80006c:	d9401115 	stw	r5,68(sp)
	stw		ea, 72(sp)			# Save the PC
  800070:	df401215 	stw	ea,72(sp)
	stw		r16, 76(sp)			# Save the remaining registers
  800074:	dc001315 	stw	r16,76(sp)
	stw		r17, 80(sp)
  800078:	dc401415 	stw	r17,80(sp)
	stw		r18, 84(sp)
  80007c:	dc801515 	stw	r18,84(sp)
	stw		r19, 88(sp)
  800080:	dcc01615 	stw	r19,88(sp)
	stw		r20, 92(sp)
  800084:	dd001715 	stw	r20,92(sp)
	stw		r21, 96(sp)
  800088:	dd401815 	stw	r21,96(sp)
	stw		r22, 100(sp)
  80008c:	dd801915 	stw	r22,100(sp)
	stw		r23, 104(sp)
  800090:	ddc01a15 	stw	r23,104(sp)
	stw		gp, 108(sp)
  800094:	de801b15 	stw	gp,108(sp)
	stw		fp, 112(sp)
  800098:	df001c15 	stw	fp,112(sp)

0080009c <save_sp_to_pxCurrentTCB>:
  80009c:	06002074 	movhi	et,129

save_sp_to_pxCurrentTCB:
	movia	et, pxCurrentTCB	# Load the address of the pxCurrentTCB pointer
  8000a0:	c62d7004 	addi	et,et,-19008
	ldw		et, (et)			# Load the value of the pxCurrentTCB pointer
  8000a4:	c6000017 	ldw	et,0(et)
	stw		sp, (et)			# Store the stack pointer into the top of the TCB
  8000a8:	c6c00015 	stw	sp,0(et)

008000ac <hw_irq_test>:
hw_irq_test:
	/*
     * Test to see if the exception was a software exception or caused 
     * by an external interrupt, and vector accordingly.
     */
    rdctl	r4, ipending		# Load the Pending Interrupts indication
  8000ac:	0009313a 	rdctl	r4,ipending
	rdctl	r5, estatus 		# Load the eStatus (enabled interrupts).
  8000b0:	000b307a 	rdctl	r5,estatus
    andi	r2, r5, 1			# Are interrupts enabled globally.
  8000b4:	2880004c 	andi	r2,r5,1
    beq		r2, zero, soft_exceptions		# Interrupts are not enabled.
  8000b8:	10002526 	beq	r2,zero,800150 <soft_exceptions>
    beq		r4, zero, soft_exceptions		# There are no interrupts triggered.
  8000bc:	20002426 	beq	r4,zero,800150 <soft_exceptions>

008000c0 <hw_irq_handler>:

	.section .exceptions.irqhandler, "xa"
hw_irq_handler:
	call	alt_irq_handler					# Call the alt_irq_handler to deliver to the registered interrupt handler.
  8000c0:	080017c0 	call	80017c <alt_irq_handler>

008000c4 <restore_sp_from_pxCurrentTCB>:
  8000c4:	06002074 	movhi	et,129

    .section .exceptions.irqreturn, "xa"
restore_sp_from_pxCurrentTCB:
	movia	et, pxCurrentTCB		# Load the address of the pxCurrentTCB pointer
  8000c8:	c62d7004 	addi	et,et,-19008
	ldw		et, (et)				# Load the value of the pxCurrentTCB pointer
  8000cc:	c6000017 	ldw	et,0(et)
	ldw		sp, (et)				# Load the stack pointer with the top value of the TCB
  8000d0:	c6c00017 	ldw	sp,0(et)

008000d4 <restore_context>:

restore_context:
	ldw		ra, 0(sp)		# Restore the registers.
  8000d4:	dfc00017 	ldw	ra,0(sp)
							# Leave a gap for muldiv 0.
	ldw		at, 8(sp)
  8000d8:	d8400217 	ldw	at,8(sp)
	ldw		r2, 12(sp)
  8000dc:	d8800317 	ldw	r2,12(sp)
	ldw		r3, 16(sp)
  8000e0:	d8c00417 	ldw	r3,16(sp)
	ldw		r4, 20(sp)
  8000e4:	d9000517 	ldw	r4,20(sp)
	ldw		r5, 24(sp) 
  8000e8:	d9400617 	ldw	r5,24(sp)
	ldw		r6, 28(sp) 
  8000ec:	d9800717 	ldw	r6,28(sp)
	ldw		r7, 32(sp) 
  8000f0:	d9c00817 	ldw	r7,32(sp)
	ldw		r8, 36(sp) 
  8000f4:	da000917 	ldw	r8,36(sp)
	ldw		r9, 40(sp) 
  8000f8:	da400a17 	ldw	r9,40(sp)
	ldw		r10, 44(sp)
  8000fc:	da800b17 	ldw	r10,44(sp)
	ldw		r11, 48(sp)
  800100:	dac00c17 	ldw	r11,48(sp)
	ldw		r12, 52(sp)
  800104:	db000d17 	ldw	r12,52(sp)
	ldw		r13, 56(sp)
  800108:	db400e17 	ldw	r13,56(sp)
	ldw		r14, 60(sp)
  80010c:	db800f17 	ldw	r14,60(sp)
	ldw		r15, 64(sp)
  800110:	dbc01017 	ldw	r15,64(sp)
	ldw		et, 68(sp)		# Load the eStatus
  800114:	de001117 	ldw	et,68(sp)
	wrctl	estatus, et 	# Write the eStatus
  800118:	c001707a 	wrctl	estatus,et
	ldw		ea, 72(sp)		# Load the Program Counter
  80011c:	df401217 	ldw	ea,72(sp)
	ldw		r16, 76(sp)
  800120:	dc001317 	ldw	r16,76(sp)
	ldw		r17, 80(sp)
  800124:	dc401417 	ldw	r17,80(sp)
	ldw		r18, 84(sp)
  800128:	dc801517 	ldw	r18,84(sp)
	ldw		r19, 88(sp)
  80012c:	dcc01617 	ldw	r19,88(sp)
	ldw		r20, 92(sp)
  800130:	dd001717 	ldw	r20,92(sp)
	ldw		r21, 96(sp)
  800134:	dd401817 	ldw	r21,96(sp)
	ldw		r22, 100(sp)
  800138:	dd801917 	ldw	r22,100(sp)
	ldw		r23, 104(sp)
  80013c:	ddc01a17 	ldw	r23,104(sp)
	ldw		gp, 108(sp)
  800140:	de801b17 	ldw	gp,108(sp)
	ldw		fp, 112(sp)
  800144:	df001c17 	ldw	fp,112(sp)
	addi	sp,	sp, 116		# Release stack space
  800148:	dec01d04 	addi	sp,sp,116

    eret					# Return to address ea, loading eStatus into Status.
  80014c:	ef80083a 	eret

00800150 <soft_exceptions>:
   
	.section .exceptions.soft, "xa"
soft_exceptions:
	ldw		et, 0(ea)				# Load the instruction where the interrupt occured.
  800150:	ee000017 	ldw	et,0(ea)
	movhi	at, %hi(0x003B683A)		# Load the registers with the trap instruction code
  800154:	00400ef4 	movhi	at,59
	ori		at, at, %lo(0x003B683A)
  800158:	085a0e94 	ori	at,at,26682
   	cmpne	et, et, at				# Compare the trap instruction code to the last excuted instruction
  80015c:	c070c03a 	cmpne	et,et,at
  	beq		et, r0, call_scheduler	# its a trap so switchcontext
  800160:	c0000226 	beq	et,zero,80016c <call_scheduler>
  	break							# This is an un-implemented instruction or muldiv problem.
  800164:	003da03a 	break	0
  	br		restore_context			# its something else
  800168:	003fda06 	br	8000d4 <__alt_mem_onchip_memory2_0+0xff7800d4>

0080016c <call_scheduler>:

call_scheduler:
	addi	ea, ea, 4						# A trap was called, increment the program counter so it is not called again.
  80016c:	ef400104 	addi	ea,ea,4
	stw		ea, 72(sp)						# Save the new program counter to the context.
  800170:	df401215 	stw	ea,72(sp)
	call	vTaskSwitchContext				# Pick the next context.
  800174:	08044c80 	call	8044c8 <vTaskSwitchContext>
	br		restore_sp_from_pxCurrentTCB	# Switch in the task context and restore. 
  800178:	003fd206 	br	8000c4 <__alt_mem_onchip_memory2_0+0xff7800c4>

0080017c <alt_irq_handler>:
 * instruction is present if the macro ALT_CI_INTERRUPT_VECTOR defined.
 */

void alt_irq_handler (void) __attribute__ ((section (".exceptions")));
void alt_irq_handler (void)
{
  80017c:	defff904 	addi	sp,sp,-28
  800180:	dfc00615 	stw	ra,24(sp)
  800184:	df000515 	stw	fp,20(sp)
  800188:	df000504 	addi	fp,sp,20
  
  /*
   * Notify the operating system that we are at interrupt level.
   */ 
  
  ALT_OS_INT_ENTER();
  80018c:	0001883a 	nop
#ifndef NIOS2_EIC_PRESENT
static ALT_INLINE alt_u32 ALT_ALWAYS_INLINE alt_irq_pending (void)
{
  alt_u32 active;

  NIOS2_READ_IPENDING (active);
  800190:	0005313a 	rdctl	r2,ipending
  800194:	e0bffe15 	stw	r2,-8(fp)

  return active;
  800198:	e0bffe17 	ldw	r2,-8(fp)
   * Consider the case where the high priority interupt is asserted during
   * the interrupt entry sequence for a lower priority interrupt to see why
   * this is the case.
   */

  active = alt_irq_pending ();
  80019c:	e0bffb15 	stw	r2,-20(fp)

  do
  {
    i = 0;
  8001a0:	e03ffd15 	stw	zero,-12(fp)
    mask = 1;
  8001a4:	00800044 	movi	r2,1
  8001a8:	e0bffc15 	stw	r2,-16(fp)
     * called to clear the interrupt condition.
     */

    do
    {
      if (active & mask)
  8001ac:	e0fffb17 	ldw	r3,-20(fp)
  8001b0:	e0bffc17 	ldw	r2,-16(fp)
  8001b4:	1884703a 	and	r2,r3,r2
  8001b8:	10001526 	beq	r2,zero,800210 <alt_irq_handler+0x94>
      { 
#ifdef ALT_ENHANCED_INTERRUPT_API_PRESENT
        alt_irq[i].handler(alt_irq[i].context); 
#else
        alt_irq[i].handler(alt_irq[i].context, i); 
  8001bc:	00802174 	movhi	r2,133
  8001c0:	10a1e004 	addi	r2,r2,-30848
  8001c4:	e0fffd17 	ldw	r3,-12(fp)
  8001c8:	180690fa 	slli	r3,r3,3
  8001cc:	10c5883a 	add	r2,r2,r3
  8001d0:	10c00017 	ldw	r3,0(r2)
  8001d4:	00802174 	movhi	r2,133
  8001d8:	10a1e004 	addi	r2,r2,-30848
  8001dc:	e13ffd17 	ldw	r4,-12(fp)
  8001e0:	200890fa 	slli	r4,r4,3
  8001e4:	1105883a 	add	r2,r2,r4
  8001e8:	10800104 	addi	r2,r2,4
  8001ec:	10800017 	ldw	r2,0(r2)
  8001f0:	e17ffd17 	ldw	r5,-12(fp)
  8001f4:	1009883a 	mov	r4,r2
  8001f8:	183ee83a 	callr	r3
#endif
        break;
  8001fc:	0001883a 	nop
#ifndef NIOS2_EIC_PRESENT
static ALT_INLINE alt_u32 ALT_ALWAYS_INLINE alt_irq_pending (void)
{
  alt_u32 active;

  NIOS2_READ_IPENDING (active);
  800200:	0005313a 	rdctl	r2,ipending
  800204:	e0bfff15 	stw	r2,-4(fp)

  return active;
  800208:	e0bfff17 	ldw	r2,-4(fp)
  80020c:	00000706 	br	80022c <alt_irq_handler+0xb0>
      }
      mask <<= 1;
  800210:	e0bffc17 	ldw	r2,-16(fp)
  800214:	1085883a 	add	r2,r2,r2
  800218:	e0bffc15 	stw	r2,-16(fp)
      i++;
  80021c:	e0bffd17 	ldw	r2,-12(fp)
  800220:	10800044 	addi	r2,r2,1
  800224:	e0bffd15 	stw	r2,-12(fp)

    } while (1);
  800228:	003fe006 	br	8001ac <__alt_mem_onchip_memory2_0+0xff7801ac>

    active = alt_irq_pending ();
  80022c:	e0bffb15 	stw	r2,-20(fp)
    
  } while (active);
  800230:	e0bffb17 	ldw	r2,-20(fp)
  800234:	103fda1e 	bne	r2,zero,8001a0 <__alt_mem_onchip_memory2_0+0xff7801a0>

  /*
   * Notify the operating system that interrupt processing is complete.
   */ 

  ALT_OS_INT_EXIT();
  800238:	0001883a 	nop
}
  80023c:	0001883a 	nop
  800240:	e037883a 	mov	sp,fp
  800244:	dfc00117 	ldw	ra,4(sp)
  800248:	df000017 	ldw	fp,0(sp)
  80024c:	dec00204 	addi	sp,sp,8
  800250:	f800283a 	ret

Disassembly of section .text:

00800254 <_start>:

    /* Assume the data cache size is always a power of two. */
#if NIOS2_DCACHE_SIZE > 0x8000
    movhi r2, %hi(NIOS2_DCACHE_SIZE)
#else
    movui r2, NIOS2_DCACHE_SIZE
  800254:	00820014 	movui	r2,2048
#endif

0:
    initd 0(r2)
  800258:	10000033 	initd	0(r2)
#ifdef NIOS2_ECC_PRESENT
    addi r2, r2, -4
#else
    addi r2, r2, -NIOS2_DCACHE_LINE_SIZE
  80025c:	10bff804 	addi	r2,r2,-32
#endif
    bgt r2, zero, 0b
  800260:	00bffd16 	blt	zero,r2,800258 <__alt_mem_onchip_memory2_0+0xff780258>

    /*
     * Now that the caches are initialized, set up the stack pointer and global pointer.
     * The values provided by the linker are assumed to be correctly aligned.
     */
    movhi sp, %hi(__alt_stack_pointer)
  800264:	06c04034 	movhi	sp,256
    ori sp, sp, %lo(__alt_stack_pointer)
  800268:	dec00014 	ori	sp,sp,0
    movhi gp, %hi(_gp)
  80026c:	06802074 	movhi	gp,129
    ori gp, gp, %lo(_gp)
  800270:	d6889e14 	ori	gp,gp,8824
 */
#ifndef ALT_SIM_OPTIMIZE
    /* Log that the BSS is about to be cleared. */
    ALT_LOG_PUTS(alt_log_msg_bss)

    movhi r2, %hi(__bss_start)
  800274:	00802034 	movhi	r2,128
    ori r2, r2, %lo(__bss_start)
  800278:	10ad6e14 	ori	r2,r2,46520

    movhi r3, %hi(__bss_end)
  80027c:	00c02134 	movhi	r3,132
    ori r3, r3, %lo(__bss_end)
  800280:	18e22014 	ori	r3,r3,34944

    beq r2, r3, 1f
  800284:	10c00326 	beq	r2,r3,800294 <_start+0x40>

0:
    stw zero, (r2)
  800288:	10000015 	stw	zero,0(r2)
    addi r2, r2, 4
  80028c:	10800104 	addi	r2,r2,4
    bltu r2, r3, 0b
  800290:	10fffd36 	bltu	r2,r3,800288 <__alt_mem_onchip_memory2_0+0xff780288>
     * section aren't defined until alt_load() has been called).
     */
    mov   et, zero
#endif

    call alt_load
  800294:	08071700 	call	807170 <alt_load>

    /* Log that alt_main is about to be called. */
    ALT_LOG_PUTS(alt_log_msg_alt_main)

    /* Call the C entry point. It should never return. */
    call alt_main
  800298:	08071f40 	call	8071f4 <alt_main>

0080029c <alt_after_alt_main>:

    /* Wait in infinite loop in case alt_main does return. */
alt_after_alt_main:
    br alt_after_alt_main
  80029c:	003fff06 	br	80029c <__alt_mem_onchip_memory2_0+0xff78029c>

008002a0 <xEventGroupCreate>:
/*-----------------------------------------------------------*/

#if( configSUPPORT_DYNAMIC_ALLOCATION == 1 )

	EventGroupHandle_t xEventGroupCreate( void )
	{
  8002a0:	defffd04 	addi	sp,sp,-12
  8002a4:	dfc00215 	stw	ra,8(sp)
  8002a8:	df000115 	stw	fp,4(sp)
  8002ac:	df000104 	addi	fp,sp,4
		TickType_t alignment requirements the cast is safe.  In other cases,
		where the natural word size of the architecture is less than
		sizeof( TickType_t ), the TickType_t variables will be accessed in two
		or more reads operations, and the alignment requirements is only that
		of each individual read. */
		pxEventBits = ( EventGroup_t * ) pvPortMalloc( sizeof( EventGroup_t ) ); /*lint !e9087 !e9079 see comment above. */
  8002b0:	01000604 	movi	r4,24
  8002b4:	080101c0 	call	80101c <pvPortMalloc>
  8002b8:	e0bfff15 	stw	r2,-4(fp)

		if( pxEventBits != NULL )
  8002bc:	e0bfff17 	ldw	r2,-4(fp)
  8002c0:	10000626 	beq	r2,zero,8002dc <xEventGroupCreate+0x3c>
		{
			pxEventBits->uxEventBits = 0;
  8002c4:	e0bfff17 	ldw	r2,-4(fp)
  8002c8:	10000015 	stw	zero,0(r2)
			vListInitialise( &( pxEventBits->xTasksWaitingForBits ) );
  8002cc:	e0bfff17 	ldw	r2,-4(fp)
  8002d0:	10800104 	addi	r2,r2,4
  8002d4:	1009883a 	mov	r4,r2
  8002d8:	08009a00 	call	8009a0 <vListInitialise>
		else
		{
			traceEVENT_GROUP_CREATE_FAILED(); /*lint !e9063 Else branch only exists to allow tracing and does not generate code if trace macros are not defined. */
		}

		return pxEventBits;
  8002dc:	e0bfff17 	ldw	r2,-4(fp)
	}
  8002e0:	e037883a 	mov	sp,fp
  8002e4:	dfc00117 	ldw	ra,4(sp)
  8002e8:	df000017 	ldw	fp,0(sp)
  8002ec:	dec00204 	addi	sp,sp,8
  8002f0:	f800283a 	ret

008002f4 <xEventGroupSync>:

#endif /* configSUPPORT_DYNAMIC_ALLOCATION */
/*-----------------------------------------------------------*/

EventBits_t xEventGroupSync( EventGroupHandle_t xEventGroup, const EventBits_t uxBitsToSet, const EventBits_t uxBitsToWaitFor, TickType_t xTicksToWait )
{
  8002f4:	defff504 	addi	sp,sp,-44
  8002f8:	dfc00a15 	stw	ra,40(sp)
  8002fc:	df000915 	stw	fp,36(sp)
  800300:	df000904 	addi	fp,sp,36
  800304:	e13ffc15 	stw	r4,-16(fp)
  800308:	e17ffd15 	stw	r5,-12(fp)
  80030c:	e1bffe15 	stw	r6,-8(fp)
  800310:	e1ffff15 	stw	r7,-4(fp)
EventBits_t uxOriginalBitValue, uxReturn;
EventGroup_t *pxEventBits = xEventGroup;
  800314:	e0bffc17 	ldw	r2,-16(fp)
  800318:	e0bff815 	stw	r2,-32(fp)
BaseType_t xAlreadyYielded;
BaseType_t xTimeoutOccurred = pdFALSE;
  80031c:	e03ff915 	stw	zero,-28(fp)
	{
		configASSERT( !( ( xTaskGetSchedulerState() == taskSCHEDULER_SUSPENDED ) && ( xTicksToWait != 0 ) ) );
	}
	#endif

	vTaskSuspendAll();
  800320:	08040940 	call	804094 <vTaskSuspendAll>
	{
		uxOriginalBitValue = pxEventBits->uxEventBits;
  800324:	e0bff817 	ldw	r2,-32(fp)
  800328:	10800017 	ldw	r2,0(r2)
  80032c:	e0bffa15 	stw	r2,-24(fp)

		( void ) xEventGroupSetBits( xEventGroup, uxBitsToSet );
  800330:	e17ffd17 	ldw	r5,-12(fp)
  800334:	e13ffc17 	ldw	r4,-16(fp)
  800338:	08006c40 	call	8006c4 <xEventGroupSetBits>

		if( ( ( uxOriginalBitValue | uxBitsToSet ) & uxBitsToWaitFor ) == uxBitsToWaitFor )
  80033c:	e0fffa17 	ldw	r3,-24(fp)
  800340:	e0bffd17 	ldw	r2,-12(fp)
  800344:	1886b03a 	or	r3,r3,r2
  800348:	e0bffe17 	ldw	r2,-8(fp)
  80034c:	1886703a 	and	r3,r3,r2
  800350:	e0bffe17 	ldw	r2,-8(fp)
  800354:	18800d1e 	bne	r3,r2,80038c <xEventGroupSync+0x98>
		{
			/* All the rendezvous bits are now set - no need to block. */
			uxReturn = ( uxOriginalBitValue | uxBitsToSet );
  800358:	e0fffa17 	ldw	r3,-24(fp)
  80035c:	e0bffd17 	ldw	r2,-12(fp)
  800360:	1884b03a 	or	r2,r3,r2
  800364:	e0bff715 	stw	r2,-36(fp)

			/* Rendezvous always clear the bits.  They will have been cleared
			already unless this is the only task in the rendezvous. */
			pxEventBits->uxEventBits &= ~uxBitsToWaitFor;
  800368:	e0bff817 	ldw	r2,-32(fp)
  80036c:	10c00017 	ldw	r3,0(r2)
  800370:	e0bffe17 	ldw	r2,-8(fp)
  800374:	0084303a 	nor	r2,zero,r2
  800378:	1886703a 	and	r3,r3,r2
  80037c:	e0bff817 	ldw	r2,-32(fp)
  800380:	10c00015 	stw	r3,0(r2)

			xTicksToWait = 0;
  800384:	e03fff15 	stw	zero,-4(fp)
  800388:	00001106 	br	8003d0 <xEventGroupSync+0xdc>
		}
		else
		{
			if( xTicksToWait != ( TickType_t ) 0 )
  80038c:	e0bfff17 	ldw	r2,-4(fp)
  800390:	10000a26 	beq	r2,zero,8003bc <xEventGroupSync+0xc8>
				traceEVENT_GROUP_SYNC_BLOCK( xEventGroup, uxBitsToSet, uxBitsToWaitFor );

				/* Store the bits that the calling task is waiting for in the
				task's event list item so the kernel knows when a match is
				found.  Then enter the blocked state. */
				vTaskPlaceOnUnorderedEventList( &( pxEventBits->xTasksWaitingForBits ), ( uxBitsToWaitFor | eventCLEAR_EVENTS_ON_EXIT_BIT | eventWAIT_FOR_ALL_BITS ), xTicksToWait );
  800394:	e0bff817 	ldw	r2,-32(fp)
  800398:	10c00104 	addi	r3,r2,4
  80039c:	e0bffe17 	ldw	r2,-8(fp)
  8003a0:	10814034 	orhi	r2,r2,1280
  8003a4:	e1bfff17 	ldw	r6,-4(fp)
  8003a8:	100b883a 	mov	r5,r2
  8003ac:	1809883a 	mov	r4,r3
  8003b0:	08045f00 	call	8045f0 <vTaskPlaceOnUnorderedEventList>

				/* This assignment is obsolete as uxReturn will get set after
				the task unblocks, but some compilers mistakenly generate a
				warning about uxReturn being returned without being set if the
				assignment is omitted. */
				uxReturn = 0;
  8003b4:	e03ff715 	stw	zero,-36(fp)
  8003b8:	00000506 	br	8003d0 <xEventGroupSync+0xdc>
			}
			else
			{
				/* The rendezvous bits were not set, but no block time was
				specified - just return the current event bit value. */
				uxReturn = pxEventBits->uxEventBits;
  8003bc:	e0bff817 	ldw	r2,-32(fp)
  8003c0:	10800017 	ldw	r2,0(r2)
  8003c4:	e0bff715 	stw	r2,-36(fp)
				xTimeoutOccurred = pdTRUE;
  8003c8:	00800044 	movi	r2,1
  8003cc:	e0bff915 	stw	r2,-28(fp)
			}
		}
	}
	xAlreadyYielded = xTaskResumeAll();
  8003d0:	08040c00 	call	8040c0 <xTaskResumeAll>
  8003d4:	e0bffb15 	stw	r2,-20(fp)

	if( xTicksToWait != ( TickType_t ) 0 )
  8003d8:	e0bfff17 	ldw	r2,-4(fp)
  8003dc:	10002026 	beq	r2,zero,800460 <xEventGroupSync+0x16c>
	{
		if( xAlreadyYielded == pdFALSE )
  8003e0:	e0bffb17 	ldw	r2,-20(fp)
  8003e4:	1000011e 	bne	r2,zero,8003ec <xEventGroupSync+0xf8>
		{
			portYIELD_WITHIN_API();
  8003e8:	003b683a 	trap	0

		/* The task blocked to wait for its required bits to be set - at this
		point either the required bits were set or the block time expired.  If
		the required bits were set they will have been stored in the task's
		event list item, and they should now be retrieved then cleared. */
		uxReturn = uxTaskResetEventItemValue();
  8003ec:	08050a80 	call	8050a8 <uxTaskResetEventItemValue>
  8003f0:	e0bff715 	stw	r2,-36(fp)

		if( ( uxReturn & eventUNBLOCKED_DUE_TO_BIT_SET ) == ( EventBits_t ) 0 )
  8003f4:	e0bff717 	ldw	r2,-36(fp)
  8003f8:	1080802c 	andhi	r2,r2,512
  8003fc:	1000131e 	bne	r2,zero,80044c <xEventGroupSync+0x158>
		{
			/* The task timed out, just return the current event bit value. */
			taskENTER_CRITICAL();
  800400:	0804ff40 	call	804ff4 <vTaskEnterCritical>
			{
				uxReturn = pxEventBits->uxEventBits;
  800404:	e0bff817 	ldw	r2,-32(fp)
  800408:	10800017 	ldw	r2,0(r2)
  80040c:	e0bff715 	stw	r2,-36(fp)

				/* Although the task got here because it timed out before the
				bits it was waiting for were set, it is possible that since it
				unblocked another task has set the bits.  If this is the case
				then it needs to clear the bits before exiting. */
				if( ( uxReturn & uxBitsToWaitFor ) == uxBitsToWaitFor )
  800410:	e0fff717 	ldw	r3,-36(fp)
  800414:	e0bffe17 	ldw	r2,-8(fp)
  800418:	1886703a 	and	r3,r3,r2
  80041c:	e0bffe17 	ldw	r2,-8(fp)
  800420:	1880071e 	bne	r3,r2,800440 <xEventGroupSync+0x14c>
				{
					pxEventBits->uxEventBits &= ~uxBitsToWaitFor;
  800424:	e0bff817 	ldw	r2,-32(fp)
  800428:	10c00017 	ldw	r3,0(r2)
  80042c:	e0bffe17 	ldw	r2,-8(fp)
  800430:	0084303a 	nor	r2,zero,r2
  800434:	1886703a 	and	r3,r3,r2
  800438:	e0bff817 	ldw	r2,-32(fp)
  80043c:	10c00015 	stw	r3,0(r2)
				else
				{
					mtCOVERAGE_TEST_MARKER();
				}
			}
			taskEXIT_CRITICAL();
  800440:	08050480 	call	805048 <vTaskExitCritical>

			xTimeoutOccurred = pdTRUE;
  800444:	00800044 	movi	r2,1
  800448:	e0bff915 	stw	r2,-28(fp)
			/* The task unblocked because the bits were set. */
		}

		/* Control bits might be set as the task had blocked should not be
		returned. */
		uxReturn &= ~eventEVENT_BITS_CONTROL_BYTES;
  80044c:	e0fff717 	ldw	r3,-36(fp)
  800450:	00804034 	movhi	r2,256
  800454:	10bfffc4 	addi	r2,r2,-1
  800458:	1884703a 	and	r2,r3,r2
  80045c:	e0bff715 	stw	r2,-36(fp)
	traceEVENT_GROUP_SYNC_END( xEventGroup, uxBitsToSet, uxBitsToWaitFor, xTimeoutOccurred );

	/* Prevent compiler warnings when trace macros are not used. */
	( void ) xTimeoutOccurred;

	return uxReturn;
  800460:	e0bff717 	ldw	r2,-36(fp)
}
  800464:	e037883a 	mov	sp,fp
  800468:	dfc00117 	ldw	ra,4(sp)
  80046c:	df000017 	ldw	fp,0(sp)
  800470:	dec00204 	addi	sp,sp,8
  800474:	f800283a 	ret

00800478 <xEventGroupWaitBits>:
/*-----------------------------------------------------------*/

EventBits_t xEventGroupWaitBits( EventGroupHandle_t xEventGroup, const EventBits_t uxBitsToWaitFor, const BaseType_t xClearOnExit, const BaseType_t xWaitForAllBits, TickType_t xTicksToWait )
{
  800478:	defff304 	addi	sp,sp,-52
  80047c:	dfc00c15 	stw	ra,48(sp)
  800480:	df000b15 	stw	fp,44(sp)
  800484:	df000b04 	addi	fp,sp,44
  800488:	e13ffc15 	stw	r4,-16(fp)
  80048c:	e17ffd15 	stw	r5,-12(fp)
  800490:	e1bffe15 	stw	r6,-8(fp)
  800494:	e1ffff15 	stw	r7,-4(fp)
EventGroup_t *pxEventBits = xEventGroup;
  800498:	e0bffc17 	ldw	r2,-16(fp)
  80049c:	e0bff715 	stw	r2,-36(fp)
EventBits_t uxReturn, uxControlBits = 0;
  8004a0:	e03ff615 	stw	zero,-40(fp)
BaseType_t xWaitConditionMet, xAlreadyYielded;
BaseType_t xTimeoutOccurred = pdFALSE;
  8004a4:	e03ff815 	stw	zero,-32(fp)
	{
		configASSERT( !( ( xTaskGetSchedulerState() == taskSCHEDULER_SUSPENDED ) && ( xTicksToWait != 0 ) ) );
	}
	#endif

	vTaskSuspendAll();
  8004a8:	08040940 	call	804094 <vTaskSuspendAll>
	{
		const EventBits_t uxCurrentEventBits = pxEventBits->uxEventBits;
  8004ac:	e0bff717 	ldw	r2,-36(fp)
  8004b0:	10800017 	ldw	r2,0(r2)
  8004b4:	e0bff915 	stw	r2,-28(fp)

		/* Check to see if the wait condition is already met or not. */
		xWaitConditionMet = prvTestWaitCondition( uxCurrentEventBits, uxBitsToWaitFor, xWaitForAllBits );
  8004b8:	e1bfff17 	ldw	r6,-4(fp)
  8004bc:	e17ffd17 	ldw	r5,-12(fp)
  8004c0:	e13ff917 	ldw	r4,-28(fp)
  8004c4:	08009300 	call	800930 <prvTestWaitCondition>
  8004c8:	e0bffa15 	stw	r2,-24(fp)

		if( xWaitConditionMet != pdFALSE )
  8004cc:	e0bffa17 	ldw	r2,-24(fp)
  8004d0:	10000d26 	beq	r2,zero,800508 <xEventGroupWaitBits+0x90>
		{
			/* The wait condition has already been met so there is no need to
			block. */
			uxReturn = uxCurrentEventBits;
  8004d4:	e0bff917 	ldw	r2,-28(fp)
  8004d8:	e0bff515 	stw	r2,-44(fp)
			xTicksToWait = ( TickType_t ) 0;
  8004dc:	e0000215 	stw	zero,8(fp)

			/* Clear the wait bits if requested to do so. */
			if( xClearOnExit != pdFALSE )
  8004e0:	e0bffe17 	ldw	r2,-8(fp)
  8004e4:	10002226 	beq	r2,zero,800570 <xEventGroupWaitBits+0xf8>
			{
				pxEventBits->uxEventBits &= ~uxBitsToWaitFor;
  8004e8:	e0bff717 	ldw	r2,-36(fp)
  8004ec:	10c00017 	ldw	r3,0(r2)
  8004f0:	e0bffd17 	ldw	r2,-12(fp)
  8004f4:	0084303a 	nor	r2,zero,r2
  8004f8:	1886703a 	and	r3,r3,r2
  8004fc:	e0bff717 	ldw	r2,-36(fp)
  800500:	10c00015 	stw	r3,0(r2)
  800504:	00001a06 	br	800570 <xEventGroupWaitBits+0xf8>
			else
			{
				mtCOVERAGE_TEST_MARKER();
			}
		}
		else if( xTicksToWait == ( TickType_t ) 0 )
  800508:	e0800217 	ldw	r2,8(fp)
  80050c:	1000051e 	bne	r2,zero,800524 <xEventGroupWaitBits+0xac>
		{
			/* The wait condition has not been met, but no block time was
			specified, so just return the current value. */
			uxReturn = uxCurrentEventBits;
  800510:	e0bff917 	ldw	r2,-28(fp)
  800514:	e0bff515 	stw	r2,-44(fp)
			xTimeoutOccurred = pdTRUE;
  800518:	00800044 	movi	r2,1
  80051c:	e0bff815 	stw	r2,-32(fp)
  800520:	00001306 	br	800570 <xEventGroupWaitBits+0xf8>
		{
			/* The task is going to block to wait for its required bits to be
			set.  uxControlBits are used to remember the specified behaviour of
			this call to xEventGroupWaitBits() - for use when the event bits
			unblock the task. */
			if( xClearOnExit != pdFALSE )
  800524:	e0bffe17 	ldw	r2,-8(fp)
  800528:	10000326 	beq	r2,zero,800538 <xEventGroupWaitBits+0xc0>
			{
				uxControlBits |= eventCLEAR_EVENTS_ON_EXIT_BIT;
  80052c:	e0bff617 	ldw	r2,-40(fp)
  800530:	10804034 	orhi	r2,r2,256
  800534:	e0bff615 	stw	r2,-40(fp)
			else
			{
				mtCOVERAGE_TEST_MARKER();
			}

			if( xWaitForAllBits != pdFALSE )
  800538:	e0bfff17 	ldw	r2,-4(fp)
  80053c:	10000326 	beq	r2,zero,80054c <xEventGroupWaitBits+0xd4>
			{
				uxControlBits |= eventWAIT_FOR_ALL_BITS;
  800540:	e0bff617 	ldw	r2,-40(fp)
  800544:	10810034 	orhi	r2,r2,1024
  800548:	e0bff615 	stw	r2,-40(fp)
			}

			/* Store the bits that the calling task is waiting for in the
			task's event list item so the kernel knows when a match is
			found.  Then enter the blocked state. */
			vTaskPlaceOnUnorderedEventList( &( pxEventBits->xTasksWaitingForBits ), ( uxBitsToWaitFor | uxControlBits ), xTicksToWait );
  80054c:	e0bff717 	ldw	r2,-36(fp)
  800550:	11000104 	addi	r4,r2,4
  800554:	e0fffd17 	ldw	r3,-12(fp)
  800558:	e0bff617 	ldw	r2,-40(fp)
  80055c:	1884b03a 	or	r2,r3,r2
  800560:	e1800217 	ldw	r6,8(fp)
  800564:	100b883a 	mov	r5,r2
  800568:	08045f00 	call	8045f0 <vTaskPlaceOnUnorderedEventList>

			/* This is obsolete as it will get set after the task unblocks, but
			some compilers mistakenly generate a warning about the variable
			being returned without being set if it is not done. */
			uxReturn = 0;
  80056c:	e03ff515 	stw	zero,-44(fp)

			traceEVENT_GROUP_WAIT_BITS_BLOCK( xEventGroup, uxBitsToWaitFor );
		}
	}
	xAlreadyYielded = xTaskResumeAll();
  800570:	08040c00 	call	8040c0 <xTaskResumeAll>
  800574:	e0bffb15 	stw	r2,-20(fp)

	if( xTicksToWait != ( TickType_t ) 0 )
  800578:	e0800217 	ldw	r2,8(fp)
  80057c:	10002226 	beq	r2,zero,800608 <xEventGroupWaitBits+0x190>
	{
		if( xAlreadyYielded == pdFALSE )
  800580:	e0bffb17 	ldw	r2,-20(fp)
  800584:	1000011e 	bne	r2,zero,80058c <xEventGroupWaitBits+0x114>
		{
			portYIELD_WITHIN_API();
  800588:	003b683a 	trap	0

		/* The task blocked to wait for its required bits to be set - at this
		point either the required bits were set or the block time expired.  If
		the required bits were set they will have been stored in the task's
		event list item, and they should now be retrieved then cleared. */
		uxReturn = uxTaskResetEventItemValue();
  80058c:	08050a80 	call	8050a8 <uxTaskResetEventItemValue>
  800590:	e0bff515 	stw	r2,-44(fp)

		if( ( uxReturn & eventUNBLOCKED_DUE_TO_BIT_SET ) == ( EventBits_t ) 0 )
  800594:	e0bff517 	ldw	r2,-44(fp)
  800598:	1080802c 	andhi	r2,r2,512
  80059c:	1000151e 	bne	r2,zero,8005f4 <xEventGroupWaitBits+0x17c>
		{
			taskENTER_CRITICAL();
  8005a0:	0804ff40 	call	804ff4 <vTaskEnterCritical>
			{
				/* The task timed out, just return the current event bit value. */
				uxReturn = pxEventBits->uxEventBits;
  8005a4:	e0bff717 	ldw	r2,-36(fp)
  8005a8:	10800017 	ldw	r2,0(r2)
  8005ac:	e0bff515 	stw	r2,-44(fp)

				/* It is possible that the event bits were updated between this
				task leaving the Blocked state and running again. */
				if( prvTestWaitCondition( uxReturn, uxBitsToWaitFor, xWaitForAllBits ) != pdFALSE )
  8005b0:	e1bfff17 	ldw	r6,-4(fp)
  8005b4:	e17ffd17 	ldw	r5,-12(fp)
  8005b8:	e13ff517 	ldw	r4,-44(fp)
  8005bc:	08009300 	call	800930 <prvTestWaitCondition>
  8005c0:	10000926 	beq	r2,zero,8005e8 <xEventGroupWaitBits+0x170>
				{
					if( xClearOnExit != pdFALSE )
  8005c4:	e0bffe17 	ldw	r2,-8(fp)
  8005c8:	10000726 	beq	r2,zero,8005e8 <xEventGroupWaitBits+0x170>
					{
						pxEventBits->uxEventBits &= ~uxBitsToWaitFor;
  8005cc:	e0bff717 	ldw	r2,-36(fp)
  8005d0:	10c00017 	ldw	r3,0(r2)
  8005d4:	e0bffd17 	ldw	r2,-12(fp)
  8005d8:	0084303a 	nor	r2,zero,r2
  8005dc:	1886703a 	and	r3,r3,r2
  8005e0:	e0bff717 	ldw	r2,-36(fp)
  8005e4:	10c00015 	stw	r3,0(r2)
				}
				else
				{
					mtCOVERAGE_TEST_MARKER();
				}
				xTimeoutOccurred = pdTRUE;
  8005e8:	00800044 	movi	r2,1
  8005ec:	e0bff815 	stw	r2,-32(fp)
			}
			taskEXIT_CRITICAL();
  8005f0:	08050480 	call	805048 <vTaskExitCritical>
		{
			/* The task unblocked because the bits were set. */
		}

		/* The task blocked so control bits may have been set. */
		uxReturn &= ~eventEVENT_BITS_CONTROL_BYTES;
  8005f4:	e0fff517 	ldw	r3,-44(fp)
  8005f8:	00804034 	movhi	r2,256
  8005fc:	10bfffc4 	addi	r2,r2,-1
  800600:	1884703a 	and	r2,r3,r2
  800604:	e0bff515 	stw	r2,-44(fp)
	traceEVENT_GROUP_WAIT_BITS_END( xEventGroup, uxBitsToWaitFor, xTimeoutOccurred );

	/* Prevent compiler warnings when trace macros are not used. */
	( void ) xTimeoutOccurred;

	return uxReturn;
  800608:	e0bff517 	ldw	r2,-44(fp)
}
  80060c:	e037883a 	mov	sp,fp
  800610:	dfc00117 	ldw	ra,4(sp)
  800614:	df000017 	ldw	fp,0(sp)
  800618:	dec00204 	addi	sp,sp,8
  80061c:	f800283a 	ret

00800620 <xEventGroupClearBits>:
/*-----------------------------------------------------------*/

EventBits_t xEventGroupClearBits( EventGroupHandle_t xEventGroup, const EventBits_t uxBitsToClear )
{
  800620:	defffa04 	addi	sp,sp,-24
  800624:	dfc00515 	stw	ra,20(sp)
  800628:	df000415 	stw	fp,16(sp)
  80062c:	df000404 	addi	fp,sp,16
  800630:	e13ffe15 	stw	r4,-8(fp)
  800634:	e17fff15 	stw	r5,-4(fp)
EventGroup_t *pxEventBits = xEventGroup;
  800638:	e0bffe17 	ldw	r2,-8(fp)
  80063c:	e0bffc15 	stw	r2,-16(fp)
	/* Check the user is not attempting to clear the bits used by the kernel
	itself. */
	configASSERT( xEventGroup );
	configASSERT( ( uxBitsToClear & eventEVENT_BITS_CONTROL_BYTES ) == 0 );

	taskENTER_CRITICAL();
  800640:	0804ff40 	call	804ff4 <vTaskEnterCritical>
	{
		traceEVENT_GROUP_CLEAR_BITS( xEventGroup, uxBitsToClear );

		/* The value returned is the event group value prior to the bits being
		cleared. */
		uxReturn = pxEventBits->uxEventBits;
  800644:	e0bffc17 	ldw	r2,-16(fp)
  800648:	10800017 	ldw	r2,0(r2)
  80064c:	e0bffd15 	stw	r2,-12(fp)

		/* Clear the bits. */
		pxEventBits->uxEventBits &= ~uxBitsToClear;
  800650:	e0bffc17 	ldw	r2,-16(fp)
  800654:	10c00017 	ldw	r3,0(r2)
  800658:	e0bfff17 	ldw	r2,-4(fp)
  80065c:	0084303a 	nor	r2,zero,r2
  800660:	1886703a 	and	r3,r3,r2
  800664:	e0bffc17 	ldw	r2,-16(fp)
  800668:	10c00015 	stw	r3,0(r2)
	}
	taskEXIT_CRITICAL();
  80066c:	08050480 	call	805048 <vTaskExitCritical>

	return uxReturn;
  800670:	e0bffd17 	ldw	r2,-12(fp)
}
  800674:	e037883a 	mov	sp,fp
  800678:	dfc00117 	ldw	ra,4(sp)
  80067c:	df000017 	ldw	fp,0(sp)
  800680:	dec00204 	addi	sp,sp,8
  800684:	f800283a 	ret

00800688 <xEventGroupGetBitsFromISR>:

#endif
/*-----------------------------------------------------------*/

EventBits_t xEventGroupGetBitsFromISR( EventGroupHandle_t xEventGroup )
{
  800688:	defffb04 	addi	sp,sp,-20
  80068c:	df000415 	stw	fp,16(sp)
  800690:	df000404 	addi	fp,sp,16
  800694:	e13fff15 	stw	r4,-4(fp)
UBaseType_t uxSavedInterruptStatus;
EventGroup_t const * const pxEventBits = xEventGroup;
  800698:	e0bfff17 	ldw	r2,-4(fp)
  80069c:	e0bffc15 	stw	r2,-16(fp)
EventBits_t uxReturn;

	uxSavedInterruptStatus = portSET_INTERRUPT_MASK_FROM_ISR();
  8006a0:	e03ffd15 	stw	zero,-12(fp)
	{
		uxReturn = pxEventBits->uxEventBits;
  8006a4:	e0bffc17 	ldw	r2,-16(fp)
  8006a8:	10800017 	ldw	r2,0(r2)
  8006ac:	e0bffe15 	stw	r2,-8(fp)
	}
	portCLEAR_INTERRUPT_MASK_FROM_ISR( uxSavedInterruptStatus );

	return uxReturn;
  8006b0:	e0bffe17 	ldw	r2,-8(fp)
} /*lint !e818 EventGroupHandle_t is a typedef used in other functions to so can't be pointer to const. */
  8006b4:	e037883a 	mov	sp,fp
  8006b8:	df000017 	ldw	fp,0(sp)
  8006bc:	dec00104 	addi	sp,sp,4
  8006c0:	f800283a 	ret

008006c4 <xEventGroupSetBits>:
/*-----------------------------------------------------------*/

EventBits_t xEventGroupSetBits( EventGroupHandle_t xEventGroup, const EventBits_t uxBitsToSet )
{
  8006c4:	defff304 	addi	sp,sp,-52
  8006c8:	dfc00c15 	stw	ra,48(sp)
  8006cc:	df000b15 	stw	fp,44(sp)
  8006d0:	df000b04 	addi	fp,sp,44
  8006d4:	e13ffe15 	stw	r4,-8(fp)
  8006d8:	e17fff15 	stw	r5,-4(fp)
ListItem_t *pxListItem, *pxNext;
ListItem_t const *pxListEnd;
List_t const * pxList;
EventBits_t uxBitsToClear = 0, uxBitsWaitedFor, uxControlBits;
  8006dc:	e03ff615 	stw	zero,-40(fp)
EventGroup_t *pxEventBits = xEventGroup;
  8006e0:	e0bffe17 	ldw	r2,-8(fp)
  8006e4:	e0bff815 	stw	r2,-32(fp)
BaseType_t xMatchFound = pdFALSE;
  8006e8:	e03ff715 	stw	zero,-36(fp)
	/* Check the user is not attempting to set the bits used by the kernel
	itself. */
	configASSERT( xEventGroup );
	configASSERT( ( uxBitsToSet & eventEVENT_BITS_CONTROL_BYTES ) == 0 );

	pxList = &( pxEventBits->xTasksWaitingForBits );
  8006ec:	e0bff817 	ldw	r2,-32(fp)
  8006f0:	10800104 	addi	r2,r2,4
  8006f4:	e0bff915 	stw	r2,-28(fp)
	pxListEnd = listGET_END_MARKER( pxList ); /*lint !e826 !e740 !e9087 The mini list structure is used as the list end to save RAM.  This is checked and valid. */
  8006f8:	e0bff917 	ldw	r2,-28(fp)
  8006fc:	10800204 	addi	r2,r2,8
  800700:	e0bffa15 	stw	r2,-24(fp)
	vTaskSuspendAll();
  800704:	08040940 	call	804094 <vTaskSuspendAll>
	{
		traceEVENT_GROUP_SET_BITS( xEventGroup, uxBitsToSet );

		pxListItem = listGET_HEAD_ENTRY( pxList );
  800708:	e0bff917 	ldw	r2,-28(fp)
  80070c:	10800317 	ldw	r2,12(r2)
  800710:	e0bff515 	stw	r2,-44(fp)

		/* Set the bits. */
		pxEventBits->uxEventBits |= uxBitsToSet;
  800714:	e0bff817 	ldw	r2,-32(fp)
  800718:	10c00017 	ldw	r3,0(r2)
  80071c:	e0bfff17 	ldw	r2,-4(fp)
  800720:	1886b03a 	or	r3,r3,r2
  800724:	e0bff817 	ldw	r2,-32(fp)
  800728:	10c00015 	stw	r3,0(r2)

		/* See if the new bit value should unblock any tasks. */
		while( pxListItem != pxListEnd )
  80072c:	00003306 	br	8007fc <xEventGroupSetBits+0x138>
		{
			pxNext = listGET_NEXT( pxListItem );
  800730:	e0bff517 	ldw	r2,-44(fp)
  800734:	10800117 	ldw	r2,4(r2)
  800738:	e0bffb15 	stw	r2,-20(fp)
			uxBitsWaitedFor = listGET_LIST_ITEM_VALUE( pxListItem );
  80073c:	e0bff517 	ldw	r2,-44(fp)
  800740:	10800017 	ldw	r2,0(r2)
  800744:	e0bffc15 	stw	r2,-16(fp)
			xMatchFound = pdFALSE;
  800748:	e03ff715 	stw	zero,-36(fp)

			/* Split the bits waited for from the control bits. */
			uxControlBits = uxBitsWaitedFor & eventEVENT_BITS_CONTROL_BYTES;
  80074c:	e0bffc17 	ldw	r2,-16(fp)
  800750:	10bfc02c 	andhi	r2,r2,65280
  800754:	e0bffd15 	stw	r2,-12(fp)
			uxBitsWaitedFor &= ~eventEVENT_BITS_CONTROL_BYTES;
  800758:	e0fffc17 	ldw	r3,-16(fp)
  80075c:	00804034 	movhi	r2,256
  800760:	10bfffc4 	addi	r2,r2,-1
  800764:	1884703a 	and	r2,r3,r2
  800768:	e0bffc15 	stw	r2,-16(fp)

			if( ( uxControlBits & eventWAIT_FOR_ALL_BITS ) == ( EventBits_t ) 0 )
  80076c:	e0bffd17 	ldw	r2,-12(fp)
  800770:	1081002c 	andhi	r2,r2,1024
  800774:	1000081e 	bne	r2,zero,800798 <xEventGroupSetBits+0xd4>
			{
				/* Just looking for single bit being set. */
				if( ( uxBitsWaitedFor & pxEventBits->uxEventBits ) != ( EventBits_t ) 0 )
  800778:	e0bff817 	ldw	r2,-32(fp)
  80077c:	10c00017 	ldw	r3,0(r2)
  800780:	e0bffc17 	ldw	r2,-16(fp)
  800784:	1884703a 	and	r2,r3,r2
  800788:	10000b26 	beq	r2,zero,8007b8 <xEventGroupSetBits+0xf4>
				{
					xMatchFound = pdTRUE;
  80078c:	00800044 	movi	r2,1
  800790:	e0bff715 	stw	r2,-36(fp)
  800794:	00000806 	br	8007b8 <xEventGroupSetBits+0xf4>
				else
				{
					mtCOVERAGE_TEST_MARKER();
				}
			}
			else if( ( uxBitsWaitedFor & pxEventBits->uxEventBits ) == uxBitsWaitedFor )
  800798:	e0bff817 	ldw	r2,-32(fp)
  80079c:	10c00017 	ldw	r3,0(r2)
  8007a0:	e0bffc17 	ldw	r2,-16(fp)
  8007a4:	1886703a 	and	r3,r3,r2
  8007a8:	e0bffc17 	ldw	r2,-16(fp)
  8007ac:	1880021e 	bne	r3,r2,8007b8 <xEventGroupSetBits+0xf4>
			{
				/* All bits are set. */
				xMatchFound = pdTRUE;
  8007b0:	00800044 	movi	r2,1
  8007b4:	e0bff715 	stw	r2,-36(fp)
			else
			{
				/* Need all bits to be set, but not all the bits were set. */
			}

			if( xMatchFound != pdFALSE )
  8007b8:	e0bff717 	ldw	r2,-36(fp)
  8007bc:	10000d26 	beq	r2,zero,8007f4 <xEventGroupSetBits+0x130>
			{
				/* The bits match.  Should the bits be cleared on exit? */
				if( ( uxControlBits & eventCLEAR_EVENTS_ON_EXIT_BIT ) != ( EventBits_t ) 0 )
  8007c0:	e0bffd17 	ldw	r2,-12(fp)
  8007c4:	1080402c 	andhi	r2,r2,256
  8007c8:	10000426 	beq	r2,zero,8007dc <xEventGroupSetBits+0x118>
				{
					uxBitsToClear |= uxBitsWaitedFor;
  8007cc:	e0fff617 	ldw	r3,-40(fp)
  8007d0:	e0bffc17 	ldw	r2,-16(fp)
  8007d4:	1884b03a 	or	r2,r3,r2
  8007d8:	e0bff615 	stw	r2,-40(fp)
				/* Store the actual event flag value in the task's event list
				item before removing the task from the event list.  The
				eventUNBLOCKED_DUE_TO_BIT_SET bit is set so the task knows
				that is was unblocked due to its required bits matching, rather
				than because it timed out. */
				vTaskRemoveFromUnorderedEventList( pxListItem, pxEventBits->uxEventBits | eventUNBLOCKED_DUE_TO_BIT_SET );
  8007dc:	e0bff817 	ldw	r2,-32(fp)
  8007e0:	10800017 	ldw	r2,0(r2)
  8007e4:	10808034 	orhi	r2,r2,512
  8007e8:	100b883a 	mov	r5,r2
  8007ec:	e13ff517 	ldw	r4,-44(fp)
  8007f0:	08047480 	call	804748 <vTaskRemoveFromUnorderedEventList>
			}

			/* Move onto the next list item.  Note pxListItem->pxNext is not
			used here as the list item may have been removed from the event list
			and inserted into the ready/pending reading list. */
			pxListItem = pxNext;
  8007f4:	e0bffb17 	ldw	r2,-20(fp)
  8007f8:	e0bff515 	stw	r2,-44(fp)

		/* Set the bits. */
		pxEventBits->uxEventBits |= uxBitsToSet;

		/* See if the new bit value should unblock any tasks. */
		while( pxListItem != pxListEnd )
  8007fc:	e0fff517 	ldw	r3,-44(fp)
  800800:	e0bffa17 	ldw	r2,-24(fp)
  800804:	18bfca1e 	bne	r3,r2,800730 <__alt_mem_onchip_memory2_0+0xff780730>
			pxListItem = pxNext;
		}

		/* Clear any bits that matched when the eventCLEAR_EVENTS_ON_EXIT_BIT
		bit was set in the control word. */
		pxEventBits->uxEventBits &= ~uxBitsToClear;
  800808:	e0bff817 	ldw	r2,-32(fp)
  80080c:	10c00017 	ldw	r3,0(r2)
  800810:	e0bff617 	ldw	r2,-40(fp)
  800814:	0084303a 	nor	r2,zero,r2
  800818:	1886703a 	and	r3,r3,r2
  80081c:	e0bff817 	ldw	r2,-32(fp)
  800820:	10c00015 	stw	r3,0(r2)
	}
	( void ) xTaskResumeAll();
  800824:	08040c00 	call	8040c0 <xTaskResumeAll>

	return pxEventBits->uxEventBits;
  800828:	e0bff817 	ldw	r2,-32(fp)
  80082c:	10800017 	ldw	r2,0(r2)
}
  800830:	e037883a 	mov	sp,fp
  800834:	dfc00117 	ldw	ra,4(sp)
  800838:	df000017 	ldw	fp,0(sp)
  80083c:	dec00204 	addi	sp,sp,8
  800840:	f800283a 	ret

00800844 <vEventGroupDelete>:
/*-----------------------------------------------------------*/

void vEventGroupDelete( EventGroupHandle_t xEventGroup )
{
  800844:	defffb04 	addi	sp,sp,-20
  800848:	dfc00415 	stw	ra,16(sp)
  80084c:	df000315 	stw	fp,12(sp)
  800850:	df000304 	addi	fp,sp,12
  800854:	e13fff15 	stw	r4,-4(fp)
EventGroup_t *pxEventBits = xEventGroup;
  800858:	e0bfff17 	ldw	r2,-4(fp)
  80085c:	e0bffd15 	stw	r2,-12(fp)
const List_t *pxTasksWaitingForBits = &( pxEventBits->xTasksWaitingForBits );
  800860:	e0bffd17 	ldw	r2,-12(fp)
  800864:	10800104 	addi	r2,r2,4
  800868:	e0bffe15 	stw	r2,-8(fp)

	vTaskSuspendAll();
  80086c:	08040940 	call	804094 <vTaskSuspendAll>
	{
		traceEVENT_GROUP_DELETE( xEventGroup );

		while( listCURRENT_LIST_LENGTH( pxTasksWaitingForBits ) > ( UBaseType_t ) 0 )
  800870:	00000506 	br	800888 <vEventGroupDelete+0x44>
		{
			/* Unblock the task, returning 0 as the event list is being deleted
			and cannot therefore have any bits set. */
			configASSERT( pxTasksWaitingForBits->xListEnd.pxNext != ( const ListItem_t * ) &( pxTasksWaitingForBits->xListEnd ) );
			vTaskRemoveFromUnorderedEventList( pxTasksWaitingForBits->xListEnd.pxNext, eventUNBLOCKED_DUE_TO_BIT_SET );
  800874:	e0bffe17 	ldw	r2,-8(fp)
  800878:	10800317 	ldw	r2,12(r2)
  80087c:	01408034 	movhi	r5,512
  800880:	1009883a 	mov	r4,r2
  800884:	08047480 	call	804748 <vTaskRemoveFromUnorderedEventList>

	vTaskSuspendAll();
	{
		traceEVENT_GROUP_DELETE( xEventGroup );

		while( listCURRENT_LIST_LENGTH( pxTasksWaitingForBits ) > ( UBaseType_t ) 0 )
  800888:	e0bffe17 	ldw	r2,-8(fp)
  80088c:	10800017 	ldw	r2,0(r2)
  800890:	103ff81e 	bne	r2,zero,800874 <__alt_mem_onchip_memory2_0+0xff780874>

		#if( ( configSUPPORT_DYNAMIC_ALLOCATION == 1 ) && ( configSUPPORT_STATIC_ALLOCATION == 0 ) )
		{
			/* The event group can only have been allocated dynamically - free
			it again. */
			vPortFree( pxEventBits );
  800894:	e13ffd17 	ldw	r4,-12(fp)
  800898:	08010dc0 	call	8010dc <vPortFree>
				mtCOVERAGE_TEST_MARKER();
			}
		}
		#endif /* configSUPPORT_DYNAMIC_ALLOCATION */
	}
	( void ) xTaskResumeAll();
  80089c:	08040c00 	call	8040c0 <xTaskResumeAll>
}
  8008a0:	0001883a 	nop
  8008a4:	e037883a 	mov	sp,fp
  8008a8:	dfc00117 	ldw	ra,4(sp)
  8008ac:	df000017 	ldw	fp,0(sp)
  8008b0:	dec00204 	addi	sp,sp,8
  8008b4:	f800283a 	ret

008008b8 <vEventGroupSetBitsCallback>:
/*-----------------------------------------------------------*/

/* For internal use only - execute a 'set bits' command that was pended from
an interrupt. */
void vEventGroupSetBitsCallback( void *pvEventGroup, const uint32_t ulBitsToSet )
{
  8008b8:	defffc04 	addi	sp,sp,-16
  8008bc:	dfc00315 	stw	ra,12(sp)
  8008c0:	df000215 	stw	fp,8(sp)
  8008c4:	df000204 	addi	fp,sp,8
  8008c8:	e13ffe15 	stw	r4,-8(fp)
  8008cc:	e17fff15 	stw	r5,-4(fp)
	( void ) xEventGroupSetBits( pvEventGroup, ( EventBits_t ) ulBitsToSet ); /*lint !e9079 Can't avoid cast to void* as a generic timer callback prototype. Callback casts back to original type so safe. */
  8008d0:	e17fff17 	ldw	r5,-4(fp)
  8008d4:	e13ffe17 	ldw	r4,-8(fp)
  8008d8:	08006c40 	call	8006c4 <xEventGroupSetBits>
}
  8008dc:	0001883a 	nop
  8008e0:	e037883a 	mov	sp,fp
  8008e4:	dfc00117 	ldw	ra,4(sp)
  8008e8:	df000017 	ldw	fp,0(sp)
  8008ec:	dec00204 	addi	sp,sp,8
  8008f0:	f800283a 	ret

008008f4 <vEventGroupClearBitsCallback>:
/*-----------------------------------------------------------*/

/* For internal use only - execute a 'clear bits' command that was pended from
an interrupt. */
void vEventGroupClearBitsCallback( void *pvEventGroup, const uint32_t ulBitsToClear )
{
  8008f4:	defffc04 	addi	sp,sp,-16
  8008f8:	dfc00315 	stw	ra,12(sp)
  8008fc:	df000215 	stw	fp,8(sp)
  800900:	df000204 	addi	fp,sp,8
  800904:	e13ffe15 	stw	r4,-8(fp)
  800908:	e17fff15 	stw	r5,-4(fp)
	( void ) xEventGroupClearBits( pvEventGroup, ( EventBits_t ) ulBitsToClear ); /*lint !e9079 Can't avoid cast to void* as a generic timer callback prototype. Callback casts back to original type so safe. */
  80090c:	e17fff17 	ldw	r5,-4(fp)
  800910:	e13ffe17 	ldw	r4,-8(fp)
  800914:	08006200 	call	800620 <xEventGroupClearBits>
}
  800918:	0001883a 	nop
  80091c:	e037883a 	mov	sp,fp
  800920:	dfc00117 	ldw	ra,4(sp)
  800924:	df000017 	ldw	fp,0(sp)
  800928:	dec00204 	addi	sp,sp,8
  80092c:	f800283a 	ret

00800930 <prvTestWaitCondition>:
/*-----------------------------------------------------------*/

static BaseType_t prvTestWaitCondition( const EventBits_t uxCurrentEventBits, const EventBits_t uxBitsToWaitFor, const BaseType_t xWaitForAllBits )
{
  800930:	defffb04 	addi	sp,sp,-20
  800934:	df000415 	stw	fp,16(sp)
  800938:	df000404 	addi	fp,sp,16
  80093c:	e13ffd15 	stw	r4,-12(fp)
  800940:	e17ffe15 	stw	r5,-8(fp)
  800944:	e1bfff15 	stw	r6,-4(fp)
BaseType_t xWaitConditionMet = pdFALSE;
  800948:	e03ffc15 	stw	zero,-16(fp)

	if( xWaitForAllBits == pdFALSE )
  80094c:	e0bfff17 	ldw	r2,-4(fp)
  800950:	1000071e 	bne	r2,zero,800970 <prvTestWaitCondition+0x40>
	{
		/* Task only has to wait for one bit within uxBitsToWaitFor to be
		set.  Is one already set? */
		if( ( uxCurrentEventBits & uxBitsToWaitFor ) != ( EventBits_t ) 0 )
  800954:	e0fffd17 	ldw	r3,-12(fp)
  800958:	e0bffe17 	ldw	r2,-8(fp)
  80095c:	1884703a 	and	r2,r3,r2
  800960:	10000a26 	beq	r2,zero,80098c <prvTestWaitCondition+0x5c>
		{
			xWaitConditionMet = pdTRUE;
  800964:	00800044 	movi	r2,1
  800968:	e0bffc15 	stw	r2,-16(fp)
  80096c:	00000706 	br	80098c <prvTestWaitCondition+0x5c>
	}
	else
	{
		/* Task has to wait for all the bits in uxBitsToWaitFor to be set.
		Are they set already? */
		if( ( uxCurrentEventBits & uxBitsToWaitFor ) == uxBitsToWaitFor )
  800970:	e0fffd17 	ldw	r3,-12(fp)
  800974:	e0bffe17 	ldw	r2,-8(fp)
  800978:	1886703a 	and	r3,r3,r2
  80097c:	e0bffe17 	ldw	r2,-8(fp)
  800980:	1880021e 	bne	r3,r2,80098c <prvTestWaitCondition+0x5c>
		{
			xWaitConditionMet = pdTRUE;
  800984:	00800044 	movi	r2,1
  800988:	e0bffc15 	stw	r2,-16(fp)
		{
			mtCOVERAGE_TEST_MARKER();
		}
	}

	return xWaitConditionMet;
  80098c:	e0bffc17 	ldw	r2,-16(fp)
}
  800990:	e037883a 	mov	sp,fp
  800994:	df000017 	ldw	fp,0(sp)
  800998:	dec00104 	addi	sp,sp,4
  80099c:	f800283a 	ret

008009a0 <vListInitialise>:
/*-----------------------------------------------------------
 * PUBLIC LIST API documented in list.h
 *----------------------------------------------------------*/

void vListInitialise( List_t * const pxList )
{
  8009a0:	defffe04 	addi	sp,sp,-8
  8009a4:	df000115 	stw	fp,4(sp)
  8009a8:	df000104 	addi	fp,sp,4
  8009ac:	e13fff15 	stw	r4,-4(fp)
	/* The list structure contains a list item which is used to mark the
	end of the list.  To initialise the list the list end is inserted
	as the only list entry. */
	pxList->pxIndex = ( ListItem_t * ) &( pxList->xListEnd );			/*lint !e826 !e740 !e9087 The mini list structure is used as the list end to save RAM.  This is checked and valid. */
  8009b0:	e0bfff17 	ldw	r2,-4(fp)
  8009b4:	10c00204 	addi	r3,r2,8
  8009b8:	e0bfff17 	ldw	r2,-4(fp)
  8009bc:	10c00115 	stw	r3,4(r2)

	/* The list end value is the highest possible value in the list to
	ensure it remains at the end of the list. */
	pxList->xListEnd.xItemValue = portMAX_DELAY;
  8009c0:	e0bfff17 	ldw	r2,-4(fp)
  8009c4:	00ffffc4 	movi	r3,-1
  8009c8:	10c00215 	stw	r3,8(r2)

	/* The list end next and previous pointers point to itself so we know
	when the list is empty. */
	pxList->xListEnd.pxNext = ( ListItem_t * ) &( pxList->xListEnd );	/*lint !e826 !e740 !e9087 The mini list structure is used as the list end to save RAM.  This is checked and valid. */
  8009cc:	e0bfff17 	ldw	r2,-4(fp)
  8009d0:	10c00204 	addi	r3,r2,8
  8009d4:	e0bfff17 	ldw	r2,-4(fp)
  8009d8:	10c00315 	stw	r3,12(r2)
	pxList->xListEnd.pxPrevious = ( ListItem_t * ) &( pxList->xListEnd );/*lint !e826 !e740 !e9087 The mini list structure is used as the list end to save RAM.  This is checked and valid. */
  8009dc:	e0bfff17 	ldw	r2,-4(fp)
  8009e0:	10c00204 	addi	r3,r2,8
  8009e4:	e0bfff17 	ldw	r2,-4(fp)
  8009e8:	10c00415 	stw	r3,16(r2)

	pxList->uxNumberOfItems = ( UBaseType_t ) 0U;
  8009ec:	e0bfff17 	ldw	r2,-4(fp)
  8009f0:	10000015 	stw	zero,0(r2)

	/* Write known values into the list if
	configUSE_LIST_DATA_INTEGRITY_CHECK_BYTES is set to 1. */
	listSET_LIST_INTEGRITY_CHECK_1_VALUE( pxList );
	listSET_LIST_INTEGRITY_CHECK_2_VALUE( pxList );
}
  8009f4:	0001883a 	nop
  8009f8:	e037883a 	mov	sp,fp
  8009fc:	df000017 	ldw	fp,0(sp)
  800a00:	dec00104 	addi	sp,sp,4
  800a04:	f800283a 	ret

00800a08 <vListInitialiseItem>:
/*-----------------------------------------------------------*/

void vListInitialiseItem( ListItem_t * const pxItem )
{
  800a08:	defffe04 	addi	sp,sp,-8
  800a0c:	df000115 	stw	fp,4(sp)
  800a10:	df000104 	addi	fp,sp,4
  800a14:	e13fff15 	stw	r4,-4(fp)
	/* Make sure the list item is not recorded as being on a list. */
	pxItem->pxContainer = NULL;
  800a18:	e0bfff17 	ldw	r2,-4(fp)
  800a1c:	10000415 	stw	zero,16(r2)

	/* Write known values into the list item if
	configUSE_LIST_DATA_INTEGRITY_CHECK_BYTES is set to 1. */
	listSET_FIRST_LIST_ITEM_INTEGRITY_CHECK_VALUE( pxItem );
	listSET_SECOND_LIST_ITEM_INTEGRITY_CHECK_VALUE( pxItem );
}
  800a20:	0001883a 	nop
  800a24:	e037883a 	mov	sp,fp
  800a28:	df000017 	ldw	fp,0(sp)
  800a2c:	dec00104 	addi	sp,sp,4
  800a30:	f800283a 	ret

00800a34 <vListInsertEnd>:
/*-----------------------------------------------------------*/

void vListInsertEnd( List_t * const pxList, ListItem_t * const pxNewListItem )
{
  800a34:	defffc04 	addi	sp,sp,-16
  800a38:	df000315 	stw	fp,12(sp)
  800a3c:	df000304 	addi	fp,sp,12
  800a40:	e13ffe15 	stw	r4,-8(fp)
  800a44:	e17fff15 	stw	r5,-4(fp)
ListItem_t * const pxIndex = pxList->pxIndex;
  800a48:	e0bffe17 	ldw	r2,-8(fp)
  800a4c:	10800117 	ldw	r2,4(r2)
  800a50:	e0bffd15 	stw	r2,-12(fp)
	listTEST_LIST_ITEM_INTEGRITY( pxNewListItem );

	/* Insert a new list item into pxList, but rather than sort the list,
	makes the new list item the last item to be removed by a call to
	listGET_OWNER_OF_NEXT_ENTRY(). */
	pxNewListItem->pxNext = pxIndex;
  800a54:	e0bfff17 	ldw	r2,-4(fp)
  800a58:	e0fffd17 	ldw	r3,-12(fp)
  800a5c:	10c00115 	stw	r3,4(r2)
	pxNewListItem->pxPrevious = pxIndex->pxPrevious;
  800a60:	e0bffd17 	ldw	r2,-12(fp)
  800a64:	10c00217 	ldw	r3,8(r2)
  800a68:	e0bfff17 	ldw	r2,-4(fp)
  800a6c:	10c00215 	stw	r3,8(r2)

	/* Only used during decision coverage testing. */
	mtCOVERAGE_TEST_DELAY();

	pxIndex->pxPrevious->pxNext = pxNewListItem;
  800a70:	e0bffd17 	ldw	r2,-12(fp)
  800a74:	10800217 	ldw	r2,8(r2)
  800a78:	e0ffff17 	ldw	r3,-4(fp)
  800a7c:	10c00115 	stw	r3,4(r2)
	pxIndex->pxPrevious = pxNewListItem;
  800a80:	e0bffd17 	ldw	r2,-12(fp)
  800a84:	e0ffff17 	ldw	r3,-4(fp)
  800a88:	10c00215 	stw	r3,8(r2)

	/* Remember which list the item is in. */
	pxNewListItem->pxContainer = pxList;
  800a8c:	e0bfff17 	ldw	r2,-4(fp)
  800a90:	e0fffe17 	ldw	r3,-8(fp)
  800a94:	10c00415 	stw	r3,16(r2)

	( pxList->uxNumberOfItems )++;
  800a98:	e0bffe17 	ldw	r2,-8(fp)
  800a9c:	10800017 	ldw	r2,0(r2)
  800aa0:	10c00044 	addi	r3,r2,1
  800aa4:	e0bffe17 	ldw	r2,-8(fp)
  800aa8:	10c00015 	stw	r3,0(r2)
}
  800aac:	0001883a 	nop
  800ab0:	e037883a 	mov	sp,fp
  800ab4:	df000017 	ldw	fp,0(sp)
  800ab8:	dec00104 	addi	sp,sp,4
  800abc:	f800283a 	ret

00800ac0 <vListInsert>:
/*-----------------------------------------------------------*/

void vListInsert( List_t * const pxList, ListItem_t * const pxNewListItem )
{
  800ac0:	defffb04 	addi	sp,sp,-20
  800ac4:	df000415 	stw	fp,16(sp)
  800ac8:	df000404 	addi	fp,sp,16
  800acc:	e13ffe15 	stw	r4,-8(fp)
  800ad0:	e17fff15 	stw	r5,-4(fp)
ListItem_t *pxIterator;
const TickType_t xValueOfInsertion = pxNewListItem->xItemValue;
  800ad4:	e0bfff17 	ldw	r2,-4(fp)
  800ad8:	10800017 	ldw	r2,0(r2)
  800adc:	e0bffd15 	stw	r2,-12(fp)
	new list item should be placed after it.  This ensures that TCBs which are
	stored in ready lists (all of which have the same xItemValue value) get a
	share of the CPU.  However, if the xItemValue is the same as the back marker
	the iteration loop below will not end.  Therefore the value is checked
	first, and the algorithm slightly modified if necessary. */
	if( xValueOfInsertion == portMAX_DELAY )
  800ae0:	e0bffd17 	ldw	r2,-12(fp)
  800ae4:	10bfffd8 	cmpnei	r2,r2,-1
  800ae8:	1000041e 	bne	r2,zero,800afc <vListInsert+0x3c>
	{
		pxIterator = pxList->xListEnd.pxPrevious;
  800aec:	e0bffe17 	ldw	r2,-8(fp)
  800af0:	10800417 	ldw	r2,16(r2)
  800af4:	e0bffc15 	stw	r2,-16(fp)
  800af8:	00000c06 	br	800b2c <vListInsert+0x6c>
			4) Using a queue or semaphore before it has been initialised or
			   before the scheduler has been started (are interrupts firing
			   before vTaskStartScheduler() has been called?).
		**********************************************************************/

		for( pxIterator = ( ListItem_t * ) &( pxList->xListEnd ); pxIterator->pxNext->xItemValue <= xValueOfInsertion; pxIterator = pxIterator->pxNext ) /*lint !e826 !e740 !e9087 The mini list structure is used as the list end to save RAM.  This is checked and valid. *//*lint !e440 The iterator moves to a different value, not xValueOfInsertion. */
  800afc:	e0bffe17 	ldw	r2,-8(fp)
  800b00:	10800204 	addi	r2,r2,8
  800b04:	e0bffc15 	stw	r2,-16(fp)
  800b08:	00000306 	br	800b18 <vListInsert+0x58>
  800b0c:	e0bffc17 	ldw	r2,-16(fp)
  800b10:	10800117 	ldw	r2,4(r2)
  800b14:	e0bffc15 	stw	r2,-16(fp)
  800b18:	e0bffc17 	ldw	r2,-16(fp)
  800b1c:	10800117 	ldw	r2,4(r2)
  800b20:	10800017 	ldw	r2,0(r2)
  800b24:	e0fffd17 	ldw	r3,-12(fp)
  800b28:	18bff82e 	bgeu	r3,r2,800b0c <__alt_mem_onchip_memory2_0+0xff780b0c>
			/* There is nothing to do here, just iterating to the wanted
			insertion position. */
		}
	}

	pxNewListItem->pxNext = pxIterator->pxNext;
  800b2c:	e0bffc17 	ldw	r2,-16(fp)
  800b30:	10c00117 	ldw	r3,4(r2)
  800b34:	e0bfff17 	ldw	r2,-4(fp)
  800b38:	10c00115 	stw	r3,4(r2)
	pxNewListItem->pxNext->pxPrevious = pxNewListItem;
  800b3c:	e0bfff17 	ldw	r2,-4(fp)
  800b40:	10800117 	ldw	r2,4(r2)
  800b44:	e0ffff17 	ldw	r3,-4(fp)
  800b48:	10c00215 	stw	r3,8(r2)
	pxNewListItem->pxPrevious = pxIterator;
  800b4c:	e0bfff17 	ldw	r2,-4(fp)
  800b50:	e0fffc17 	ldw	r3,-16(fp)
  800b54:	10c00215 	stw	r3,8(r2)
	pxIterator->pxNext = pxNewListItem;
  800b58:	e0bffc17 	ldw	r2,-16(fp)
  800b5c:	e0ffff17 	ldw	r3,-4(fp)
  800b60:	10c00115 	stw	r3,4(r2)

	/* Remember which list the item is in.  This allows fast removal of the
	item later. */
	pxNewListItem->pxContainer = pxList;
  800b64:	e0bfff17 	ldw	r2,-4(fp)
  800b68:	e0fffe17 	ldw	r3,-8(fp)
  800b6c:	10c00415 	stw	r3,16(r2)

	( pxList->uxNumberOfItems )++;
  800b70:	e0bffe17 	ldw	r2,-8(fp)
  800b74:	10800017 	ldw	r2,0(r2)
  800b78:	10c00044 	addi	r3,r2,1
  800b7c:	e0bffe17 	ldw	r2,-8(fp)
  800b80:	10c00015 	stw	r3,0(r2)
}
  800b84:	0001883a 	nop
  800b88:	e037883a 	mov	sp,fp
  800b8c:	df000017 	ldw	fp,0(sp)
  800b90:	dec00104 	addi	sp,sp,4
  800b94:	f800283a 	ret

00800b98 <uxListRemove>:
/*-----------------------------------------------------------*/

UBaseType_t uxListRemove( ListItem_t * const pxItemToRemove )
{
  800b98:	defffd04 	addi	sp,sp,-12
  800b9c:	df000215 	stw	fp,8(sp)
  800ba0:	df000204 	addi	fp,sp,8
  800ba4:	e13fff15 	stw	r4,-4(fp)
/* The list item knows which list it is in.  Obtain the list from the list
item. */
List_t * const pxList = pxItemToRemove->pxContainer;
  800ba8:	e0bfff17 	ldw	r2,-4(fp)
  800bac:	10800417 	ldw	r2,16(r2)
  800bb0:	e0bffe15 	stw	r2,-8(fp)

	pxItemToRemove->pxNext->pxPrevious = pxItemToRemove->pxPrevious;
  800bb4:	e0bfff17 	ldw	r2,-4(fp)
  800bb8:	10800117 	ldw	r2,4(r2)
  800bbc:	e0ffff17 	ldw	r3,-4(fp)
  800bc0:	18c00217 	ldw	r3,8(r3)
  800bc4:	10c00215 	stw	r3,8(r2)
	pxItemToRemove->pxPrevious->pxNext = pxItemToRemove->pxNext;
  800bc8:	e0bfff17 	ldw	r2,-4(fp)
  800bcc:	10800217 	ldw	r2,8(r2)
  800bd0:	e0ffff17 	ldw	r3,-4(fp)
  800bd4:	18c00117 	ldw	r3,4(r3)
  800bd8:	10c00115 	stw	r3,4(r2)

	/* Only used during decision coverage testing. */
	mtCOVERAGE_TEST_DELAY();

	/* Make sure the index is left pointing to a valid item. */
	if( pxList->pxIndex == pxItemToRemove )
  800bdc:	e0bffe17 	ldw	r2,-8(fp)
  800be0:	10c00117 	ldw	r3,4(r2)
  800be4:	e0bfff17 	ldw	r2,-4(fp)
  800be8:	1880041e 	bne	r3,r2,800bfc <uxListRemove+0x64>
	{
		pxList->pxIndex = pxItemToRemove->pxPrevious;
  800bec:	e0bfff17 	ldw	r2,-4(fp)
  800bf0:	10c00217 	ldw	r3,8(r2)
  800bf4:	e0bffe17 	ldw	r2,-8(fp)
  800bf8:	10c00115 	stw	r3,4(r2)
	else
	{
		mtCOVERAGE_TEST_MARKER();
	}

	pxItemToRemove->pxContainer = NULL;
  800bfc:	e0bfff17 	ldw	r2,-4(fp)
  800c00:	10000415 	stw	zero,16(r2)
	( pxList->uxNumberOfItems )--;
  800c04:	e0bffe17 	ldw	r2,-8(fp)
  800c08:	10800017 	ldw	r2,0(r2)
  800c0c:	10ffffc4 	addi	r3,r2,-1
  800c10:	e0bffe17 	ldw	r2,-8(fp)
  800c14:	10c00015 	stw	r3,0(r2)

	return pxList->uxNumberOfItems;
  800c18:	e0bffe17 	ldw	r2,-8(fp)
  800c1c:	10800017 	ldw	r2,0(r2)
}
  800c20:	e037883a 	mov	sp,fp
  800c24:	df000017 	ldw	fp,0(sp)
  800c28:	dec00104 	addi	sp,sp,4
  800c2c:	f800283a 	ret

00800c30 <prvReadGp>:
void vPortSysTickHandler( void * context, alt_u32 id );

/*-----------------------------------------------------------*/

static void prvReadGp( uint32_t *ulValue )
{
  800c30:	defffe04 	addi	sp,sp,-8
  800c34:	df000115 	stw	fp,4(sp)
  800c38:	df000104 	addi	fp,sp,4
  800c3c:	e13fff15 	stw	r4,-4(fp)
	asm( "stw gp, (%0)" :: "r"(ulValue) );
  800c40:	e0bfff17 	ldw	r2,-4(fp)
  800c44:	16800015 	stw	gp,0(r2)
}
  800c48:	0001883a 	nop
  800c4c:	e037883a 	mov	sp,fp
  800c50:	df000017 	ldw	fp,0(sp)
  800c54:	dec00104 	addi	sp,sp,4
  800c58:	f800283a 	ret

00800c5c <pxPortInitialiseStack>:

/* 
 * See header file for description. 
 */
StackType_t *pxPortInitialiseStack( StackType_t *pxTopOfStack, TaskFunction_t pxCode, void *pvParameters )
{    
  800c5c:	defff904 	addi	sp,sp,-28
  800c60:	dfc00615 	stw	ra,24(sp)
  800c64:	df000515 	stw	fp,20(sp)
  800c68:	df000504 	addi	fp,sp,20
  800c6c:	e13ffd15 	stw	r4,-12(fp)
  800c70:	e17ffe15 	stw	r5,-8(fp)
  800c74:	e1bfff15 	stw	r6,-4(fp)
StackType_t *pxFramePointer = pxTopOfStack - 1;
  800c78:	e0bffd17 	ldw	r2,-12(fp)
  800c7c:	10bfff04 	addi	r2,r2,-4
  800c80:	e0bffb15 	stw	r2,-20(fp)
StackType_t xGlobalPointer;

    prvReadGp( &xGlobalPointer ); 
  800c84:	e0bffc04 	addi	r2,fp,-16
  800c88:	1009883a 	mov	r4,r2
  800c8c:	0800c300 	call	800c30 <prvReadGp>

    /* End of stack marker. */
    *pxTopOfStack = 0xdeadbeef;
  800c90:	e0fffd17 	ldw	r3,-12(fp)
  800c94:	00b7abb4 	movhi	r2,57006
  800c98:	10afbbc4 	addi	r2,r2,-16657
  800c9c:	18800015 	stw	r2,0(r3)
    pxTopOfStack--;
  800ca0:	e0bffd17 	ldw	r2,-12(fp)
  800ca4:	10bfff04 	addi	r2,r2,-4
  800ca8:	e0bffd15 	stw	r2,-12(fp)
    
    *pxTopOfStack = ( StackType_t ) pxFramePointer; 
  800cac:	e0fffb17 	ldw	r3,-20(fp)
  800cb0:	e0bffd17 	ldw	r2,-12(fp)
  800cb4:	10c00015 	stw	r3,0(r2)
    pxTopOfStack--;
  800cb8:	e0bffd17 	ldw	r2,-12(fp)
  800cbc:	10bfff04 	addi	r2,r2,-4
  800cc0:	e0bffd15 	stw	r2,-12(fp)
    
    *pxTopOfStack = xGlobalPointer; 
  800cc4:	e0fffc17 	ldw	r3,-16(fp)
  800cc8:	e0bffd17 	ldw	r2,-12(fp)
  800ccc:	10c00015 	stw	r3,0(r2)
    
    /* Space for R23 to R16. */
    pxTopOfStack -= 9;
  800cd0:	e0bffd17 	ldw	r2,-12(fp)
  800cd4:	10bff704 	addi	r2,r2,-36
  800cd8:	e0bffd15 	stw	r2,-12(fp)

    *pxTopOfStack = ( StackType_t ) pxCode; 
  800cdc:	e0fffe17 	ldw	r3,-8(fp)
  800ce0:	e0bffd17 	ldw	r2,-12(fp)
  800ce4:	10c00015 	stw	r3,0(r2)
    pxTopOfStack--;
  800ce8:	e0bffd17 	ldw	r2,-12(fp)
  800cec:	10bfff04 	addi	r2,r2,-4
  800cf0:	e0bffd15 	stw	r2,-12(fp)

    *pxTopOfStack = portINITIAL_ESTATUS; 
  800cf4:	e0bffd17 	ldw	r2,-12(fp)
  800cf8:	00c00044 	movi	r3,1
  800cfc:	10c00015 	stw	r3,0(r2)

    /* Space for R15 to R5. */    
    pxTopOfStack -= 12;
  800d00:	e0bffd17 	ldw	r2,-12(fp)
  800d04:	10bff404 	addi	r2,r2,-48
  800d08:	e0bffd15 	stw	r2,-12(fp)
    
    *pxTopOfStack = ( StackType_t ) pvParameters; 
  800d0c:	e0ffff17 	ldw	r3,-4(fp)
  800d10:	e0bffd17 	ldw	r2,-12(fp)
  800d14:	10c00015 	stw	r3,0(r2)

    /* Space for R3 to R1, muldiv and RA. */
    pxTopOfStack -= 5;
  800d18:	e0bffd17 	ldw	r2,-12(fp)
  800d1c:	10bffb04 	addi	r2,r2,-20
  800d20:	e0bffd15 	stw	r2,-12(fp)
    
    return pxTopOfStack;
  800d24:	e0bffd17 	ldw	r2,-12(fp)
}
  800d28:	e037883a 	mov	sp,fp
  800d2c:	dfc00117 	ldw	ra,4(sp)
  800d30:	df000017 	ldw	fp,0(sp)
  800d34:	dec00204 	addi	sp,sp,8
  800d38:	f800283a 	ret

00800d3c <xPortStartScheduler>:

/* 
 * See header file for description. 
 */
BaseType_t xPortStartScheduler( void )
{
  800d3c:	defffe04 	addi	sp,sp,-8
  800d40:	dfc00115 	stw	ra,4(sp)
  800d44:	df000015 	stw	fp,0(sp)
  800d48:	d839883a 	mov	fp,sp
	/* Start the timer that generates the tick ISR.  Interrupts are disabled
	here already. */
	prvSetupTimerInterrupt();
  800d4c:	0800d940 	call	800d94 <prvSetupTimerInterrupt>
  800d50:	00802034 	movhi	r2,128
	
	/* Start the first task. */
    asm volatile (  " movia r2, restore_sp_from_pxCurrentTCB        \n"
  800d54:	10803104 	addi	r2,r2,196
  800d58:	1000683a 	jmp	r2
                    " jmp r2                                          " );

	/* Should not get here! */
	return 0;
  800d5c:	0005883a 	mov	r2,zero
}
  800d60:	e037883a 	mov	sp,fp
  800d64:	dfc00117 	ldw	ra,4(sp)
  800d68:	df000017 	ldw	fp,0(sp)
  800d6c:	dec00204 	addi	sp,sp,8
  800d70:	f800283a 	ret

00800d74 <vPortEndScheduler>:
/*-----------------------------------------------------------*/

void vPortEndScheduler( void )
{
  800d74:	deffff04 	addi	sp,sp,-4
  800d78:	df000015 	stw	fp,0(sp)
  800d7c:	d839883a 	mov	fp,sp
	/* It is unlikely that the NIOS2 port will require this function as there
	is nothing to return to.  */
}
  800d80:	0001883a 	nop
  800d84:	e037883a 	mov	sp,fp
  800d88:	df000017 	ldw	fp,0(sp)
  800d8c:	dec00104 	addi	sp,sp,4
  800d90:	f800283a 	ret

00800d94 <prvSetupTimerInterrupt>:
/*
 * Setup the systick timer to generate the tick interrupts at the required
 * frequency.
 */
void prvSetupTimerInterrupt( void )
{
  800d94:	defffe04 	addi	sp,sp,-8
  800d98:	dfc00115 	stw	ra,4(sp)
  800d9c:	df000015 	stw	fp,0(sp)
  800da0:	d839883a 	mov	fp,sp
	/* Try to register the interrupt handler. */
	if ( -EINVAL == alt_irq_register( TIMER_0_IRQ, 0x0, vPortSysTickHandler ) )
  800da4:	01802034 	movhi	r6,128
  800da8:	31838c04 	addi	r6,r6,3632
  800dac:	000b883a 	mov	r5,zero
  800db0:	01000044 	movi	r4,1
  800db4:	0800e7c0 	call	800e7c <alt_irq_register>
  800db8:	10bffa98 	cmpnei	r2,r2,-22
  800dbc:	1000021e 	bne	r2,zero,800dc8 <prvSetupTimerInterrupt+0x34>
	{ 
		/* Failed to install the Interrupt Handler. */
		asm( "break" );
  800dc0:	003da03a 	break	0
  800dc4:	00001006 	br	800e08 <prvSetupTimerInterrupt+0x74>
	}
	else
	{
		/* Configure SysTick to interrupt at the requested rate. */
		IOWR_ALTERA_AVALON_TIMER_CONTROL( TIMER_0_BASE, ALTERA_AVALON_TIMER_CONTROL_STOP_MSK );
  800dc8:	00c00204 	movi	r3,8
  800dcc:	00804434 	movhi	r2,272
  800dd0:	10840104 	addi	r2,r2,4100
  800dd4:	10c00035 	stwio	r3,0(r2)
		IOWR_ALTERA_AVALON_TIMER_PERIODL( TIMER_0_BASE, ( configCPU_CLOCK_HZ / configTICK_RATE_HZ ) & 0xFFFF );
  800dd8:	00f0d414 	movui	r3,50000
  800ddc:	00804434 	movhi	r2,272
  800de0:	10840204 	addi	r2,r2,4104
  800de4:	10c00035 	stwio	r3,0(r2)
		IOWR_ALTERA_AVALON_TIMER_PERIODH( TIMER_0_BASE, ( configCPU_CLOCK_HZ / configTICK_RATE_HZ ) >> 16 );
  800de8:	0007883a 	mov	r3,zero
  800dec:	00804434 	movhi	r2,272
  800df0:	10840304 	addi	r2,r2,4108
  800df4:	10c00035 	stwio	r3,0(r2)
		IOWR_ALTERA_AVALON_TIMER_CONTROL( TIMER_0_BASE, ALTERA_AVALON_TIMER_CONTROL_CONT_MSK | ALTERA_AVALON_TIMER_CONTROL_START_MSK | ALTERA_AVALON_TIMER_CONTROL_ITO_MSK );	
  800df8:	00c001c4 	movi	r3,7
  800dfc:	00804434 	movhi	r2,272
  800e00:	10840104 	addi	r2,r2,4100
  800e04:	10c00035 	stwio	r3,0(r2)
	} 

	/* Clear any already pending interrupts generated by the Timer. */
	IOWR_ALTERA_AVALON_TIMER_STATUS( TIMER_0_BASE, ~ALTERA_AVALON_TIMER_STATUS_TO_MSK );
  800e08:	00ffff84 	movi	r3,-2
  800e0c:	00804434 	movhi	r2,272
  800e10:	10840004 	addi	r2,r2,4096
  800e14:	10c00035 	stwio	r3,0(r2)
}
  800e18:	0001883a 	nop
  800e1c:	e037883a 	mov	sp,fp
  800e20:	dfc00117 	ldw	ra,4(sp)
  800e24:	df000017 	ldw	fp,0(sp)
  800e28:	dec00204 	addi	sp,sp,8
  800e2c:	f800283a 	ret

00800e30 <vPortSysTickHandler>:
/*-----------------------------------------------------------*/

void vPortSysTickHandler( void * context, alt_u32 id )
{
  800e30:	defffc04 	addi	sp,sp,-16
  800e34:	dfc00315 	stw	ra,12(sp)
  800e38:	df000215 	stw	fp,8(sp)
  800e3c:	df000204 	addi	fp,sp,8
  800e40:	e13ffe15 	stw	r4,-8(fp)
  800e44:	e17fff15 	stw	r5,-4(fp)
	/* Increment the kernel tick. */
	if( xTaskIncrementTick() != pdFALSE )
  800e48:	08043180 	call	804318 <xTaskIncrementTick>
  800e4c:	10000126 	beq	r2,zero,800e54 <vPortSysTickHandler+0x24>
	{
        vTaskSwitchContext();
  800e50:	08044c80 	call	8044c8 <vTaskSwitchContext>
	}
		
	/* Clear the interrupt. */
	IOWR_ALTERA_AVALON_TIMER_STATUS( TIMER_0_BASE, ~ALTERA_AVALON_TIMER_STATUS_TO_MSK );
  800e54:	00ffff84 	movi	r3,-2
  800e58:	00804434 	movhi	r2,272
  800e5c:	10840004 	addi	r2,r2,4096
  800e60:	10c00035 	stwio	r3,0(r2)
}
  800e64:	0001883a 	nop
  800e68:	e037883a 	mov	sp,fp
  800e6c:	dfc00117 	ldw	ra,4(sp)
  800e70:	df000017 	ldw	fp,0(sp)
  800e74:	dec00204 	addi	sp,sp,8
  800e78:	f800283a 	ret

00800e7c <alt_irq_register>:
 * when it is registered. Interrupts should only be enabled after the FreeRTOS.org
 * kernel has its scheduler started so that contexts are saved and switched 
 * correctly.
 */
int alt_irq_register( alt_u32 id, void* context, void (*handler)(void*, alt_u32) )
{
  800e7c:	defff104 	addi	sp,sp,-60
  800e80:	df000e15 	stw	fp,56(sp)
  800e84:	df000e04 	addi	fp,sp,56
  800e88:	e13ffd15 	stw	r4,-12(fp)
  800e8c:	e17ffe15 	stw	r5,-8(fp)
  800e90:	e1bfff15 	stw	r6,-4(fp)
	int rc = -EINVAL;  
  800e94:	00bffa84 	movi	r2,-22
  800e98:	e0bff215 	stw	r2,-56(fp)
	alt_irq_context status;

	if (id < ALT_NIRQ)
  800e9c:	e0bffd17 	ldw	r2,-12(fp)
  800ea0:	10800828 	cmpgeui	r2,r2,32
  800ea4:	1000581e 	bne	r2,zero,801008 <alt_irq_register+0x18c>
static ALT_INLINE alt_irq_context ALT_ALWAYS_INLINE 
       alt_irq_disable_all (void)
{
  alt_irq_context context;

  NIOS2_READ_STATUS (context);
  800ea8:	0005303a 	rdctl	r2,status
  800eac:	e0bff615 	stw	r2,-40(fp)

  NIOS2_WRITE_STATUS (context & ~NIOS2_STATUS_PIE_MSK);
  800eb0:	e0fff617 	ldw	r3,-40(fp)
  800eb4:	00bfff84 	movi	r2,-2
  800eb8:	1884703a 	and	r2,r3,r2
  800ebc:	1001703a 	wrctl	status,r2
  
  return context;
  800ec0:	e0bff617 	ldw	r2,-40(fp)
		 * interrupts are disabled while the handler tables are updated to ensure
		 * that an interrupt doesn't occur while the tables are in an inconsistent
		 * state.
		 */
	
		status = alt_irq_disable_all ();
  800ec4:	e0bff415 	stw	r2,-48(fp)
	
		alt_irq[id].handler = handler;
  800ec8:	00802174 	movhi	r2,133
  800ecc:	10a1e004 	addi	r2,r2,-30848
  800ed0:	e0fffd17 	ldw	r3,-12(fp)
  800ed4:	180690fa 	slli	r3,r3,3
  800ed8:	10c5883a 	add	r2,r2,r3
  800edc:	e0ffff17 	ldw	r3,-4(fp)
  800ee0:	10c00015 	stw	r3,0(r2)
		alt_irq[id].context = context;
  800ee4:	00802174 	movhi	r2,133
  800ee8:	10a1e004 	addi	r2,r2,-30848
  800eec:	e0fffd17 	ldw	r3,-12(fp)
  800ef0:	180690fa 	slli	r3,r3,3
  800ef4:	10c5883a 	add	r2,r2,r3
  800ef8:	10800104 	addi	r2,r2,4
  800efc:	e0fffe17 	ldw	r3,-8(fp)
  800f00:	10c00015 	stw	r3,0(r2)
	
		rc = (handler) ? alt_irq_enable (id): alt_irq_disable (id);
  800f04:	e0bfff17 	ldw	r2,-4(fp)
  800f08:	10001f26 	beq	r2,zero,800f88 <alt_irq_register+0x10c>
  800f0c:	e0bffd17 	ldw	r2,-12(fp)
  800f10:	e0bff315 	stw	r2,-52(fp)
static ALT_INLINE alt_irq_context ALT_ALWAYS_INLINE 
       alt_irq_disable_all (void)
{
  alt_irq_context context;

  NIOS2_READ_STATUS (context);
  800f14:	0005303a 	rdctl	r2,status
  800f18:	e0bff715 	stw	r2,-36(fp)

  NIOS2_WRITE_STATUS (context & ~NIOS2_STATUS_PIE_MSK);
  800f1c:	e0fff717 	ldw	r3,-36(fp)
  800f20:	00bfff84 	movi	r2,-2
  800f24:	1884703a 	and	r2,r3,r2
  800f28:	1001703a 	wrctl	status,r2
  
  return context;
  800f2c:	e0bff717 	ldw	r2,-36(fp)
static ALT_INLINE int ALT_ALWAYS_INLINE alt_irq_enable (alt_u32 id)
{
  alt_irq_context  status;
  extern volatile alt_u32 alt_irq_active;

  status = alt_irq_disable_all ();
  800f30:	e0bff815 	stw	r2,-32(fp)

  alt_irq_active |= (1 << id);
  800f34:	00c00044 	movi	r3,1
  800f38:	e0bff317 	ldw	r2,-52(fp)
  800f3c:	1884983a 	sll	r2,r3,r2
  800f40:	1007883a 	mov	r3,r2
  800f44:	00802074 	movhi	r2,129
  800f48:	10ad8404 	addi	r2,r2,-18928
  800f4c:	10800017 	ldw	r2,0(r2)
  800f50:	1886b03a 	or	r3,r3,r2
  800f54:	00802074 	movhi	r2,129
  800f58:	10ad8404 	addi	r2,r2,-18928
  800f5c:	10c00015 	stw	r3,0(r2)
  NIOS2_WRITE_IENABLE (alt_irq_active);
  800f60:	00802074 	movhi	r2,129
  800f64:	10ad8404 	addi	r2,r2,-18928
  800f68:	10800017 	ldw	r2,0(r2)
  800f6c:	100170fa 	wrctl	ienable,r2
  800f70:	e0bff817 	ldw	r2,-32(fp)
  800f74:	e0bff915 	stw	r2,-28(fp)
  status &= ~NIOS2_STATUS_PIE_MSK;
  status |= (context & NIOS2_STATUS_PIE_MSK);
  
  NIOS2_WRITE_STATUS (status);
#else
  NIOS2_WRITE_STATUS (context);
  800f78:	e0bff917 	ldw	r2,-28(fp)
  800f7c:	1001703a 	wrctl	status,r2

  alt_irq_enable_all(status);

  return 0;
  800f80:	0005883a 	mov	r2,zero
  800f84:	00001f06 	br	801004 <alt_irq_register+0x188>
  800f88:	e0bffd17 	ldw	r2,-12(fp)
  800f8c:	e0bff515 	stw	r2,-44(fp)
static ALT_INLINE alt_irq_context ALT_ALWAYS_INLINE 
       alt_irq_disable_all (void)
{
  alt_irq_context context;

  NIOS2_READ_STATUS (context);
  800f90:	0005303a 	rdctl	r2,status
  800f94:	e0bffa15 	stw	r2,-24(fp)

  NIOS2_WRITE_STATUS (context & ~NIOS2_STATUS_PIE_MSK);
  800f98:	e0fffa17 	ldw	r3,-24(fp)
  800f9c:	00bfff84 	movi	r2,-2
  800fa0:	1884703a 	and	r2,r3,r2
  800fa4:	1001703a 	wrctl	status,r2
  
  return context;
  800fa8:	e0bffa17 	ldw	r2,-24(fp)
static ALT_INLINE int ALT_ALWAYS_INLINE alt_irq_disable (alt_u32 id)
{
  alt_irq_context  status;
  extern volatile alt_u32 alt_irq_active;

  status = alt_irq_disable_all ();
  800fac:	e0bffb15 	stw	r2,-20(fp)

  alt_irq_active &= ~(1 << id);
  800fb0:	00c00044 	movi	r3,1
  800fb4:	e0bff517 	ldw	r2,-44(fp)
  800fb8:	1884983a 	sll	r2,r3,r2
  800fbc:	0084303a 	nor	r2,zero,r2
  800fc0:	1007883a 	mov	r3,r2
  800fc4:	00802074 	movhi	r2,129
  800fc8:	10ad8404 	addi	r2,r2,-18928
  800fcc:	10800017 	ldw	r2,0(r2)
  800fd0:	1886703a 	and	r3,r3,r2
  800fd4:	00802074 	movhi	r2,129
  800fd8:	10ad8404 	addi	r2,r2,-18928
  800fdc:	10c00015 	stw	r3,0(r2)
  NIOS2_WRITE_IENABLE (alt_irq_active);
  800fe0:	00802074 	movhi	r2,129
  800fe4:	10ad8404 	addi	r2,r2,-18928
  800fe8:	10800017 	ldw	r2,0(r2)
  800fec:	100170fa 	wrctl	ienable,r2
  800ff0:	e0bffb17 	ldw	r2,-20(fp)
  800ff4:	e0bffc15 	stw	r2,-16(fp)
  status &= ~NIOS2_STATUS_PIE_MSK;
  status |= (context & NIOS2_STATUS_PIE_MSK);
  
  NIOS2_WRITE_STATUS (status);
#else
  NIOS2_WRITE_STATUS (context);
  800ff8:	e0bffc17 	ldw	r2,-16(fp)
  800ffc:	1001703a 	wrctl	status,r2

  alt_irq_enable_all(status);

  return 0;
  801000:	0005883a 	mov	r2,zero
  801004:	e0bff215 	stw	r2,-56(fp)
	
		/* alt_irq_enable_all(status); This line is removed to prevent the interrupt from being immediately enabled. */
	}
    
	return rc; 
  801008:	e0bff217 	ldw	r2,-56(fp)
}
  80100c:	e037883a 	mov	sp,fp
  801010:	df000017 	ldw	fp,0(sp)
  801014:	dec00104 	addi	sp,sp,4
  801018:	f800283a 	ret

0080101c <pvPortMalloc>:
static size_t xNextFreeByte = ( size_t ) 0;

/*-----------------------------------------------------------*/

void *pvPortMalloc( size_t xWantedSize )
{
  80101c:	defffc04 	addi	sp,sp,-16
  801020:	dfc00315 	stw	ra,12(sp)
  801024:	df000215 	stw	fp,8(sp)
  801028:	df000204 	addi	fp,sp,8
  80102c:	e13fff15 	stw	r4,-4(fp)
void *pvReturn = NULL;
  801030:	e03ffe15 	stw	zero,-8(fp)
static uint8_t *pucAlignedHeap = NULL;

	/* Ensure that blocks are always aligned to the required number of bytes. */
	#if( portBYTE_ALIGNMENT != 1 )
	{
		if( xWantedSize & portBYTE_ALIGNMENT_MASK )
  801034:	e0bfff17 	ldw	r2,-4(fp)
  801038:	108000cc 	andi	r2,r2,3
  80103c:	10000526 	beq	r2,zero,801054 <pvPortMalloc+0x38>
		{
			/* Byte alignment required. */
			xWantedSize += ( portBYTE_ALIGNMENT - ( xWantedSize & portBYTE_ALIGNMENT_MASK ) );
  801040:	e0ffff17 	ldw	r3,-4(fp)
  801044:	00bfff04 	movi	r2,-4
  801048:	1884703a 	and	r2,r3,r2
  80104c:	10800104 	addi	r2,r2,4
  801050:	e0bfff15 	stw	r2,-4(fp)
		}
	}
	#endif

	vTaskSuspendAll();
  801054:	08040940 	call	804094 <vTaskSuspendAll>
	{
		if( pucAlignedHeap == NULL )
  801058:	d0a4d117 	ldw	r2,-27836(gp)
  80105c:	1000051e 	bne	r2,zero,801074 <pvPortMalloc+0x58>
		{
			/* Ensure the heap starts on a correctly aligned boundary. */
			pucAlignedHeap = ( uint8_t * ) ( ( ( portPOINTER_SIZE_TYPE ) &ucHeap[ portBYTE_ALIGNMENT ] ) & ( ~( ( portPOINTER_SIZE_TYPE ) portBYTE_ALIGNMENT_MASK ) ) );
  801060:	00802074 	movhi	r2,129
  801064:	10ad8b04 	addi	r2,r2,-18900
  801068:	00ffff04 	movi	r3,-4
  80106c:	10c4703a 	and	r2,r2,r3
  801070:	d0a4d115 	stw	r2,-27836(gp)
		}

		/* Check there is enough room left for the allocation. */
		if( ( ( xNextFreeByte + xWantedSize ) < configADJUSTED_HEAP_SIZE ) &&
  801074:	d0e4d017 	ldw	r3,-27840(gp)
  801078:	e0bfff17 	ldw	r2,-4(fp)
  80107c:	1887883a 	add	r3,r3,r2
  801080:	00800134 	movhi	r2,4
  801084:	10b422c4 	addi	r2,r2,-12149
  801088:	10c00d36 	bltu	r2,r3,8010c0 <pvPortMalloc+0xa4>
			( ( xNextFreeByte + xWantedSize ) > xNextFreeByte )	)/* Check for overflow. */
  80108c:	d0e4d017 	ldw	r3,-27840(gp)
  801090:	e0bfff17 	ldw	r2,-4(fp)
  801094:	1885883a 	add	r2,r3,r2
  801098:	d0e4d017 	ldw	r3,-27840(gp)
			/* Ensure the heap starts on a correctly aligned boundary. */
			pucAlignedHeap = ( uint8_t * ) ( ( ( portPOINTER_SIZE_TYPE ) &ucHeap[ portBYTE_ALIGNMENT ] ) & ( ~( ( portPOINTER_SIZE_TYPE ) portBYTE_ALIGNMENT_MASK ) ) );
		}

		/* Check there is enough room left for the allocation. */
		if( ( ( xNextFreeByte + xWantedSize ) < configADJUSTED_HEAP_SIZE ) &&
  80109c:	1880082e 	bgeu	r3,r2,8010c0 <pvPortMalloc+0xa4>
			( ( xNextFreeByte + xWantedSize ) > xNextFreeByte )	)/* Check for overflow. */
		{
			/* Return the next free byte then increment the index past this
			block. */
			pvReturn = pucAlignedHeap + xNextFreeByte;
  8010a0:	d0e4d117 	ldw	r3,-27836(gp)
  8010a4:	d0a4d017 	ldw	r2,-27840(gp)
  8010a8:	1885883a 	add	r2,r3,r2
  8010ac:	e0bffe15 	stw	r2,-8(fp)
			xNextFreeByte += xWantedSize;
  8010b0:	d0e4d017 	ldw	r3,-27840(gp)
  8010b4:	e0bfff17 	ldw	r2,-4(fp)
  8010b8:	1885883a 	add	r2,r3,r2
  8010bc:	d0a4d015 	stw	r2,-27840(gp)
		}

		traceMALLOC( pvReturn, xWantedSize );
	}
	( void ) xTaskResumeAll();
  8010c0:	08040c00 	call	8040c0 <xTaskResumeAll>
			vApplicationMallocFailedHook();
		}
	}
	#endif

	return pvReturn;
  8010c4:	e0bffe17 	ldw	r2,-8(fp)
}
  8010c8:	e037883a 	mov	sp,fp
  8010cc:	dfc00117 	ldw	ra,4(sp)
  8010d0:	df000017 	ldw	fp,0(sp)
  8010d4:	dec00204 	addi	sp,sp,8
  8010d8:	f800283a 	ret

008010dc <vPortFree>:
/*-----------------------------------------------------------*/

void vPortFree( void *pv )
{
  8010dc:	defffe04 	addi	sp,sp,-8
  8010e0:	df000115 	stw	fp,4(sp)
  8010e4:	df000104 	addi	fp,sp,4
  8010e8:	e13fff15 	stw	r4,-4(fp)
	http://www.FreeRTOS.org for more information. */
	( void ) pv;

	/* Force an assert as it is invalid to call this function. */
	configASSERT( pv == NULL );
}
  8010ec:	0001883a 	nop
  8010f0:	e037883a 	mov	sp,fp
  8010f4:	df000017 	ldw	fp,0(sp)
  8010f8:	dec00104 	addi	sp,sp,4
  8010fc:	f800283a 	ret

00801100 <vPortInitialiseBlocks>:
/*-----------------------------------------------------------*/

void vPortInitialiseBlocks( void )
{
  801100:	deffff04 	addi	sp,sp,-4
  801104:	df000015 	stw	fp,0(sp)
  801108:	d839883a 	mov	fp,sp
	/* Only required when static memory is not cleared. */
	xNextFreeByte = ( size_t ) 0;
  80110c:	d024d015 	stw	zero,-27840(gp)
}
  801110:	0001883a 	nop
  801114:	e037883a 	mov	sp,fp
  801118:	df000017 	ldw	fp,0(sp)
  80111c:	dec00104 	addi	sp,sp,4
  801120:	f800283a 	ret

00801124 <xPortGetFreeHeapSize>:
/*-----------------------------------------------------------*/

size_t xPortGetFreeHeapSize( void )
{
  801124:	deffff04 	addi	sp,sp,-4
  801128:	df000015 	stw	fp,0(sp)
  80112c:	d839883a 	mov	fp,sp
	return ( configADJUSTED_HEAP_SIZE - xNextFreeByte );
  801130:	d0e4d017 	ldw	r3,-27840(gp)
  801134:	00800134 	movhi	r2,4
  801138:	10b42304 	addi	r2,r2,-12148
  80113c:	10c5c83a 	sub	r2,r2,r3
}
  801140:	e037883a 	mov	sp,fp
  801144:	df000017 	ldw	fp,0(sp)
  801148:	dec00104 	addi	sp,sp,4
  80114c:	f800283a 	ret

00801150 <xQueueGenericReset>:
	}														\
	taskEXIT_CRITICAL()
/*-----------------------------------------------------------*/

BaseType_t xQueueGenericReset( QueueHandle_t xQueue, BaseType_t xNewQueue )
{
  801150:	defffb04 	addi	sp,sp,-20
  801154:	dfc00415 	stw	ra,16(sp)
  801158:	df000315 	stw	fp,12(sp)
  80115c:	df000304 	addi	fp,sp,12
  801160:	e13ffe15 	stw	r4,-8(fp)
  801164:	e17fff15 	stw	r5,-4(fp)
Queue_t * const pxQueue = xQueue;
  801168:	e0bffe17 	ldw	r2,-8(fp)
  80116c:	e0bffd15 	stw	r2,-12(fp)

	configASSERT( pxQueue );

	taskENTER_CRITICAL();
  801170:	0804ff40 	call	804ff4 <vTaskEnterCritical>
	{
		pxQueue->u.xQueue.pcTail = pxQueue->pcHead + ( pxQueue->uxLength * pxQueue->uxItemSize ); /*lint !e9016 Pointer arithmetic allowed on char types, especially when it assists conveying intent. */
  801174:	e0bffd17 	ldw	r2,-12(fp)
  801178:	10c00017 	ldw	r3,0(r2)
  80117c:	e0bffd17 	ldw	r2,-12(fp)
  801180:	11000f17 	ldw	r4,60(r2)
  801184:	e0bffd17 	ldw	r2,-12(fp)
  801188:	10801017 	ldw	r2,64(r2)
  80118c:	2085383a 	mul	r2,r4,r2
  801190:	1887883a 	add	r3,r3,r2
  801194:	e0bffd17 	ldw	r2,-12(fp)
  801198:	10c00215 	stw	r3,8(r2)
		pxQueue->uxMessagesWaiting = ( UBaseType_t ) 0U;
  80119c:	e0bffd17 	ldw	r2,-12(fp)
  8011a0:	10000e15 	stw	zero,56(r2)
		pxQueue->pcWriteTo = pxQueue->pcHead;
  8011a4:	e0bffd17 	ldw	r2,-12(fp)
  8011a8:	10c00017 	ldw	r3,0(r2)
  8011ac:	e0bffd17 	ldw	r2,-12(fp)
  8011b0:	10c00115 	stw	r3,4(r2)
		pxQueue->u.xQueue.pcReadFrom = pxQueue->pcHead + ( ( pxQueue->uxLength - 1U ) * pxQueue->uxItemSize ); /*lint !e9016 Pointer arithmetic allowed on char types, especially when it assists conveying intent. */
  8011b4:	e0bffd17 	ldw	r2,-12(fp)
  8011b8:	10c00017 	ldw	r3,0(r2)
  8011bc:	e0bffd17 	ldw	r2,-12(fp)
  8011c0:	10800f17 	ldw	r2,60(r2)
  8011c4:	113fffc4 	addi	r4,r2,-1
  8011c8:	e0bffd17 	ldw	r2,-12(fp)
  8011cc:	10801017 	ldw	r2,64(r2)
  8011d0:	2085383a 	mul	r2,r4,r2
  8011d4:	1887883a 	add	r3,r3,r2
  8011d8:	e0bffd17 	ldw	r2,-12(fp)
  8011dc:	10c00315 	stw	r3,12(r2)
		pxQueue->cRxLock = queueUNLOCKED;
  8011e0:	e0bffd17 	ldw	r2,-12(fp)
  8011e4:	00ffffc4 	movi	r3,-1
  8011e8:	10c01105 	stb	r3,68(r2)
		pxQueue->cTxLock = queueUNLOCKED;
  8011ec:	e0bffd17 	ldw	r2,-12(fp)
  8011f0:	00ffffc4 	movi	r3,-1
  8011f4:	10c01145 	stb	r3,69(r2)

		if( xNewQueue == pdFALSE )
  8011f8:	e0bfff17 	ldw	r2,-4(fp)
  8011fc:	10000a1e 	bne	r2,zero,801228 <xQueueGenericReset+0xd8>
			/* If there are tasks blocked waiting to read from the queue, then
			the tasks will remain blocked as after this function exits the queue
			will still be empty.  If there are tasks blocked waiting to write to
			the queue, then one should be unblocked as after this function exits
			it will be possible to write to it. */
			if( listLIST_IS_EMPTY( &( pxQueue->xTasksWaitingToSend ) ) == pdFALSE )
  801200:	e0bffd17 	ldw	r2,-12(fp)
  801204:	10800417 	ldw	r2,16(r2)
  801208:	10000f26 	beq	r2,zero,801248 <xQueueGenericReset+0xf8>
			{
				if( xTaskRemoveFromEventList( &( pxQueue->xTasksWaitingToSend ) ) != pdFALSE )
  80120c:	e0bffd17 	ldw	r2,-12(fp)
  801210:	10800404 	addi	r2,r2,16
  801214:	1009883a 	mov	r4,r2
  801218:	08046540 	call	804654 <xTaskRemoveFromEventList>
  80121c:	10000a26 	beq	r2,zero,801248 <xQueueGenericReset+0xf8>
				{
					queueYIELD_IF_USING_PREEMPTION();
  801220:	003b683a 	trap	0
  801224:	00000806 	br	801248 <xQueueGenericReset+0xf8>
			}
		}
		else
		{
			/* Ensure the event queues start in the correct state. */
			vListInitialise( &( pxQueue->xTasksWaitingToSend ) );
  801228:	e0bffd17 	ldw	r2,-12(fp)
  80122c:	10800404 	addi	r2,r2,16
  801230:	1009883a 	mov	r4,r2
  801234:	08009a00 	call	8009a0 <vListInitialise>
			vListInitialise( &( pxQueue->xTasksWaitingToReceive ) );
  801238:	e0bffd17 	ldw	r2,-12(fp)
  80123c:	10800904 	addi	r2,r2,36
  801240:	1009883a 	mov	r4,r2
  801244:	08009a00 	call	8009a0 <vListInitialise>
		}
	}
	taskEXIT_CRITICAL();
  801248:	08050480 	call	805048 <vTaskExitCritical>

	/* A value is returned for calling semantic consistency with previous
	versions. */
	return pdPASS;
  80124c:	00800044 	movi	r2,1
}
  801250:	e037883a 	mov	sp,fp
  801254:	dfc00117 	ldw	ra,4(sp)
  801258:	df000017 	ldw	fp,0(sp)
  80125c:	dec00204 	addi	sp,sp,8
  801260:	f800283a 	ret

00801264 <xQueueGenericCreate>:
/*-----------------------------------------------------------*/

#if( configSUPPORT_DYNAMIC_ALLOCATION == 1 )

	QueueHandle_t xQueueGenericCreate( const UBaseType_t uxQueueLength, const UBaseType_t uxItemSize, const uint8_t ucQueueType )
	{
  801264:	defff704 	addi	sp,sp,-36
  801268:	dfc00815 	stw	ra,32(sp)
  80126c:	df000715 	stw	fp,28(sp)
  801270:	df000704 	addi	fp,sp,28
  801274:	e13ffd15 	stw	r4,-12(fp)
  801278:	e17ffe15 	stw	r5,-8(fp)
  80127c:	3005883a 	mov	r2,r6
  801280:	e0bfff05 	stb	r2,-4(fp)
		configASSERT( uxQueueLength > ( UBaseType_t ) 0 );

		/* Allocate enough space to hold the maximum number of items that
		can be in the queue at any time.  It is valid for uxItemSize to be
		zero in the case the queue is used as a semaphore. */
		xQueueSizeInBytes = ( size_t ) ( uxQueueLength * uxItemSize ); /*lint !e961 MISRA exception as the casts are only redundant for some ports. */
  801284:	e0fffd17 	ldw	r3,-12(fp)
  801288:	e0bffe17 	ldw	r2,-8(fp)
  80128c:	1885383a 	mul	r2,r3,r2
  801290:	e0bffa15 	stw	r2,-24(fp)
		alignment requirements of the Queue_t structure - which in this case
		is an int8_t *.  Therefore, whenever the stack alignment requirements
		are greater than or equal to the pointer to char requirements the cast
		is safe.  In other cases alignment requirements are not strict (one or
		two bytes). */
		pxNewQueue = ( Queue_t * ) pvPortMalloc( sizeof( Queue_t ) + xQueueSizeInBytes ); /*lint !e9087 !e9079 see comment above. */
  801294:	e0bffa17 	ldw	r2,-24(fp)
  801298:	10801204 	addi	r2,r2,72
  80129c:	1009883a 	mov	r4,r2
  8012a0:	080101c0 	call	80101c <pvPortMalloc>
  8012a4:	e0bffb15 	stw	r2,-20(fp)

		if( pxNewQueue != NULL )
  8012a8:	e0bffb17 	ldw	r2,-20(fp)
  8012ac:	10000d26 	beq	r2,zero,8012e4 <xQueueGenericCreate+0x80>
		{
			/* Jump past the queue structure to find the location of the queue
			storage area. */
			pucQueueStorage = ( uint8_t * ) pxNewQueue;
  8012b0:	e0bffb17 	ldw	r2,-20(fp)
  8012b4:	e0bffc15 	stw	r2,-16(fp)
			pucQueueStorage += sizeof( Queue_t ); /*lint !e9016 Pointer arithmetic allowed on char types, especially when it assists conveying intent. */
  8012b8:	e0bffc17 	ldw	r2,-16(fp)
  8012bc:	10801204 	addi	r2,r2,72
  8012c0:	e0bffc15 	stw	r2,-16(fp)
				deleted. */
				pxNewQueue->ucStaticallyAllocated = pdFALSE;
			}
			#endif /* configSUPPORT_STATIC_ALLOCATION */

			prvInitialiseNewQueue( uxQueueLength, uxItemSize, pucQueueStorage, ucQueueType, pxNewQueue );
  8012c4:	e0ffff03 	ldbu	r3,-4(fp)
  8012c8:	e0bffb17 	ldw	r2,-20(fp)
  8012cc:	d8800015 	stw	r2,0(sp)
  8012d0:	180f883a 	mov	r7,r3
  8012d4:	e1bffc17 	ldw	r6,-16(fp)
  8012d8:	e17ffe17 	ldw	r5,-8(fp)
  8012dc:	e13ffd17 	ldw	r4,-12(fp)
  8012e0:	08012fc0 	call	8012fc <prvInitialiseNewQueue>
		{
			traceQUEUE_CREATE_FAILED( ucQueueType );
			mtCOVERAGE_TEST_MARKER();
		}

		return pxNewQueue;
  8012e4:	e0bffb17 	ldw	r2,-20(fp)
	}
  8012e8:	e037883a 	mov	sp,fp
  8012ec:	dfc00117 	ldw	ra,4(sp)
  8012f0:	df000017 	ldw	fp,0(sp)
  8012f4:	dec00204 	addi	sp,sp,8
  8012f8:	f800283a 	ret

008012fc <prvInitialiseNewQueue>:

#endif /* configSUPPORT_STATIC_ALLOCATION */
/*-----------------------------------------------------------*/

static void prvInitialiseNewQueue( const UBaseType_t uxQueueLength, const UBaseType_t uxItemSize, uint8_t *pucQueueStorage, const uint8_t ucQueueType, Queue_t *pxNewQueue )
{
  8012fc:	defffa04 	addi	sp,sp,-24
  801300:	dfc00515 	stw	ra,20(sp)
  801304:	df000415 	stw	fp,16(sp)
  801308:	df000404 	addi	fp,sp,16
  80130c:	e13ffc15 	stw	r4,-16(fp)
  801310:	e17ffd15 	stw	r5,-12(fp)
  801314:	e1bffe15 	stw	r6,-8(fp)
  801318:	3805883a 	mov	r2,r7
  80131c:	e0bfff05 	stb	r2,-4(fp)
	/* Remove compiler warnings about unused parameters should
	configUSE_TRACE_FACILITY not be set to 1. */
	( void ) ucQueueType;

	if( uxItemSize == ( UBaseType_t ) 0 )
  801320:	e0bffd17 	ldw	r2,-12(fp)
  801324:	1000041e 	bne	r2,zero,801338 <prvInitialiseNewQueue+0x3c>
	{
		/* No RAM was allocated for the queue storage area, but PC head cannot
		be set to NULL because NULL is used as a key to say the queue is used as
		a mutex.  Therefore just set pcHead to point to the queue as a benign
		value that is known to be within the memory map. */
		pxNewQueue->pcHead = ( int8_t * ) pxNewQueue;
  801328:	e0800217 	ldw	r2,8(fp)
  80132c:	e0c00217 	ldw	r3,8(fp)
  801330:	10c00015 	stw	r3,0(r2)
  801334:	00000306 	br	801344 <prvInitialiseNewQueue+0x48>
	}
	else
	{
		/* Set the head to the start of the queue storage area. */
		pxNewQueue->pcHead = ( int8_t * ) pucQueueStorage;
  801338:	e0800217 	ldw	r2,8(fp)
  80133c:	e0fffe17 	ldw	r3,-8(fp)
  801340:	10c00015 	stw	r3,0(r2)
	}

	/* Initialise the queue members as described where the queue type is
	defined. */
	pxNewQueue->uxLength = uxQueueLength;
  801344:	e0800217 	ldw	r2,8(fp)
  801348:	e0fffc17 	ldw	r3,-16(fp)
  80134c:	10c00f15 	stw	r3,60(r2)
	pxNewQueue->uxItemSize = uxItemSize;
  801350:	e0800217 	ldw	r2,8(fp)
  801354:	e0fffd17 	ldw	r3,-12(fp)
  801358:	10c01015 	stw	r3,64(r2)
	( void ) xQueueGenericReset( pxNewQueue, pdTRUE );
  80135c:	01400044 	movi	r5,1
  801360:	e1000217 	ldw	r4,8(fp)
  801364:	08011500 	call	801150 <xQueueGenericReset>
		pxNewQueue->pxQueueSetContainer = NULL;
	}
	#endif /* configUSE_QUEUE_SETS */

	traceQUEUE_CREATE( pxNewQueue );
}
  801368:	0001883a 	nop
  80136c:	e037883a 	mov	sp,fp
  801370:	dfc00117 	ldw	ra,4(sp)
  801374:	df000017 	ldw	fp,0(sp)
  801378:	dec00204 	addi	sp,sp,8
  80137c:	f800283a 	ret

00801380 <prvInitialiseMutex>:
/*-----------------------------------------------------------*/

#if( configUSE_MUTEXES == 1 )

	static void prvInitialiseMutex( Queue_t *pxNewQueue )
	{
  801380:	defffd04 	addi	sp,sp,-12
  801384:	dfc00215 	stw	ra,8(sp)
  801388:	df000115 	stw	fp,4(sp)
  80138c:	df000104 	addi	fp,sp,4
  801390:	e13fff15 	stw	r4,-4(fp)
		if( pxNewQueue != NULL )
  801394:	e0bfff17 	ldw	r2,-4(fp)
  801398:	10000b26 	beq	r2,zero,8013c8 <prvInitialiseMutex+0x48>
		{
			/* The queue create function will set all the queue structure members
			correctly for a generic queue, but this function is creating a
			mutex.  Overwrite those members that need to be set differently -
			in particular the information required for priority inheritance. */
			pxNewQueue->u.xSemaphore.xMutexHolder = NULL;
  80139c:	e0bfff17 	ldw	r2,-4(fp)
  8013a0:	10000215 	stw	zero,8(r2)
			pxNewQueue->uxQueueType = queueQUEUE_IS_MUTEX;
  8013a4:	e0bfff17 	ldw	r2,-4(fp)
  8013a8:	10000015 	stw	zero,0(r2)

			/* In case this is a recursive mutex. */
			pxNewQueue->u.xSemaphore.uxRecursiveCallCount = 0;
  8013ac:	e0bfff17 	ldw	r2,-4(fp)
  8013b0:	10000315 	stw	zero,12(r2)

			traceCREATE_MUTEX( pxNewQueue );

			/* Start with the semaphore in the expected state. */
			( void ) xQueueGenericSend( pxNewQueue, NULL, ( TickType_t ) 0U, queueSEND_TO_BACK );
  8013b4:	000f883a 	mov	r7,zero
  8013b8:	000d883a 	mov	r6,zero
  8013bc:	000b883a 	mov	r5,zero
  8013c0:	e13fff17 	ldw	r4,-4(fp)
  8013c4:	08015c00 	call	8015c0 <xQueueGenericSend>
		}
		else
		{
			traceCREATE_MUTEX_FAILED();
		}
	}
  8013c8:	0001883a 	nop
  8013cc:	e037883a 	mov	sp,fp
  8013d0:	dfc00117 	ldw	ra,4(sp)
  8013d4:	df000017 	ldw	fp,0(sp)
  8013d8:	dec00204 	addi	sp,sp,8
  8013dc:	f800283a 	ret

008013e0 <xQueueCreateMutex>:
/*-----------------------------------------------------------*/

#if( ( configUSE_MUTEXES == 1 ) && ( configSUPPORT_DYNAMIC_ALLOCATION == 1 ) )

	QueueHandle_t xQueueCreateMutex( const uint8_t ucQueueType )
	{
  8013e0:	defffa04 	addi	sp,sp,-24
  8013e4:	dfc00515 	stw	ra,20(sp)
  8013e8:	df000415 	stw	fp,16(sp)
  8013ec:	df000404 	addi	fp,sp,16
  8013f0:	2005883a 	mov	r2,r4
  8013f4:	e0bfff05 	stb	r2,-4(fp)
	QueueHandle_t xNewQueue;
	const UBaseType_t uxMutexLength = ( UBaseType_t ) 1, uxMutexSize = ( UBaseType_t ) 0;
  8013f8:	00800044 	movi	r2,1
  8013fc:	e0bffc15 	stw	r2,-16(fp)
  801400:	e03ffd15 	stw	zero,-12(fp)

		xNewQueue = xQueueGenericCreate( uxMutexLength, uxMutexSize, ucQueueType );
  801404:	e0bfff03 	ldbu	r2,-4(fp)
  801408:	100d883a 	mov	r6,r2
  80140c:	e17ffd17 	ldw	r5,-12(fp)
  801410:	e13ffc17 	ldw	r4,-16(fp)
  801414:	08012640 	call	801264 <xQueueGenericCreate>
  801418:	e0bffe15 	stw	r2,-8(fp)
		prvInitialiseMutex( ( Queue_t * ) xNewQueue );
  80141c:	e13ffe17 	ldw	r4,-8(fp)
  801420:	08013800 	call	801380 <prvInitialiseMutex>

		return xNewQueue;
  801424:	e0bffe17 	ldw	r2,-8(fp)
	}
  801428:	e037883a 	mov	sp,fp
  80142c:	dfc00117 	ldw	ra,4(sp)
  801430:	df000017 	ldw	fp,0(sp)
  801434:	dec00204 	addi	sp,sp,8
  801438:	f800283a 	ret

0080143c <xQueueGiveMutexRecursive>:
/*-----------------------------------------------------------*/

#if ( configUSE_RECURSIVE_MUTEXES == 1 )

	BaseType_t xQueueGiveMutexRecursive( QueueHandle_t xMutex )
	{
  80143c:	defffa04 	addi	sp,sp,-24
  801440:	dfc00515 	stw	ra,20(sp)
  801444:	df000415 	stw	fp,16(sp)
  801448:	dc000315 	stw	r16,12(sp)
  80144c:	df000404 	addi	fp,sp,16
  801450:	e13ffe15 	stw	r4,-8(fp)
	BaseType_t xReturn;
	Queue_t * const pxMutex = ( Queue_t * ) xMutex;
  801454:	e0bffe17 	ldw	r2,-8(fp)
  801458:	e0bffd15 	stw	r2,-12(fp)
		change outside of this task.  If this task does not hold the mutex then
		pxMutexHolder can never coincidentally equal the tasks handle, and as
		this is the only condition we are interested in it does not matter if
		pxMutexHolder is accessed simultaneously by another task.  Therefore no
		mutual exclusion is required to test the pxMutexHolder variable. */
		if( pxMutex->u.xSemaphore.xMutexHolder == xTaskGetCurrentTaskHandle() )
  80145c:	e0bffd17 	ldw	r2,-12(fp)
  801460:	14000217 	ldw	r16,8(r2)
  801464:	0804c500 	call	804c50 <xTaskGetCurrentTaskHandle>
  801468:	8080101e 	bne	r16,r2,8014ac <xQueueGiveMutexRecursive+0x70>
			/* uxRecursiveCallCount cannot be zero if xMutexHolder is equal to
			the task handle, therefore no underflow check is required.  Also,
			uxRecursiveCallCount is only modified by the mutex holder, and as
			there can only be one, no mutual exclusion is required to modify the
			uxRecursiveCallCount member. */
			( pxMutex->u.xSemaphore.uxRecursiveCallCount )--;
  80146c:	e0bffd17 	ldw	r2,-12(fp)
  801470:	10800317 	ldw	r2,12(r2)
  801474:	10ffffc4 	addi	r3,r2,-1
  801478:	e0bffd17 	ldw	r2,-12(fp)
  80147c:	10c00315 	stw	r3,12(r2)

			/* Has the recursive call count unwound to 0? */
			if( pxMutex->u.xSemaphore.uxRecursiveCallCount == ( UBaseType_t ) 0 )
  801480:	e0bffd17 	ldw	r2,-12(fp)
  801484:	10800317 	ldw	r2,12(r2)
  801488:	1000051e 	bne	r2,zero,8014a0 <xQueueGiveMutexRecursive+0x64>
			{
				/* Return the mutex.  This will automatically unblock any other
				task that might be waiting to access the mutex. */
				( void ) xQueueGenericSend( pxMutex, NULL, queueMUTEX_GIVE_BLOCK_TIME, queueSEND_TO_BACK );
  80148c:	000f883a 	mov	r7,zero
  801490:	000d883a 	mov	r6,zero
  801494:	000b883a 	mov	r5,zero
  801498:	e13ffd17 	ldw	r4,-12(fp)
  80149c:	08015c00 	call	8015c0 <xQueueGenericSend>
			else
			{
				mtCOVERAGE_TEST_MARKER();
			}

			xReturn = pdPASS;
  8014a0:	00800044 	movi	r2,1
  8014a4:	e0bffc15 	stw	r2,-16(fp)
  8014a8:	00000106 	br	8014b0 <xQueueGiveMutexRecursive+0x74>
		}
		else
		{
			/* The mutex cannot be given because the calling task is not the
			holder. */
			xReturn = pdFAIL;
  8014ac:	e03ffc15 	stw	zero,-16(fp)

			traceGIVE_MUTEX_RECURSIVE_FAILED( pxMutex );
		}

		return xReturn;
  8014b0:	e0bffc17 	ldw	r2,-16(fp)
	}
  8014b4:	e6ffff04 	addi	sp,fp,-4
  8014b8:	dfc00217 	ldw	ra,8(sp)
  8014bc:	df000117 	ldw	fp,4(sp)
  8014c0:	dc000017 	ldw	r16,0(sp)
  8014c4:	dec00304 	addi	sp,sp,12
  8014c8:	f800283a 	ret

008014cc <xQueueTakeMutexRecursive>:
/*-----------------------------------------------------------*/

#if ( configUSE_RECURSIVE_MUTEXES == 1 )

	BaseType_t xQueueTakeMutexRecursive( QueueHandle_t xMutex, TickType_t xTicksToWait )
	{
  8014cc:	defff904 	addi	sp,sp,-28
  8014d0:	dfc00615 	stw	ra,24(sp)
  8014d4:	df000515 	stw	fp,20(sp)
  8014d8:	dc000415 	stw	r16,16(sp)
  8014dc:	df000504 	addi	fp,sp,20
  8014e0:	e13ffd15 	stw	r4,-12(fp)
  8014e4:	e17ffe15 	stw	r5,-8(fp)
	BaseType_t xReturn;
	Queue_t * const pxMutex = ( Queue_t * ) xMutex;
  8014e8:	e0bffd17 	ldw	r2,-12(fp)
  8014ec:	e0bffc15 	stw	r2,-16(fp)
		/* Comments regarding mutual exclusion as per those within
		xQueueGiveMutexRecursive(). */

		traceTAKE_MUTEX_RECURSIVE( pxMutex );

		if( pxMutex->u.xSemaphore.xMutexHolder == xTaskGetCurrentTaskHandle() )
  8014f0:	e0bffc17 	ldw	r2,-16(fp)
  8014f4:	14000217 	ldw	r16,8(r2)
  8014f8:	0804c500 	call	804c50 <xTaskGetCurrentTaskHandle>
  8014fc:	8080081e 	bne	r16,r2,801520 <xQueueTakeMutexRecursive+0x54>
		{
			( pxMutex->u.xSemaphore.uxRecursiveCallCount )++;
  801500:	e0bffc17 	ldw	r2,-16(fp)
  801504:	10800317 	ldw	r2,12(r2)
  801508:	10c00044 	addi	r3,r2,1
  80150c:	e0bffc17 	ldw	r2,-16(fp)
  801510:	10c00315 	stw	r3,12(r2)
			xReturn = pdPASS;
  801514:	00800044 	movi	r2,1
  801518:	e0bffb15 	stw	r2,-20(fp)
  80151c:	00000b06 	br	80154c <xQueueTakeMutexRecursive+0x80>
		}
		else
		{
			xReturn = xQueueSemaphoreTake( pxMutex, xTicksToWait );
  801520:	e17ffe17 	ldw	r5,-8(fp)
  801524:	e13ffc17 	ldw	r4,-16(fp)
  801528:	0801aec0 	call	801aec <xQueueSemaphoreTake>
  80152c:	e0bffb15 	stw	r2,-20(fp)

			/* pdPASS will only be returned if the mutex was successfully
			obtained.  The calling task may have entered the Blocked state
			before reaching here. */
			if( xReturn != pdFAIL )
  801530:	e0bffb17 	ldw	r2,-20(fp)
  801534:	10000526 	beq	r2,zero,80154c <xQueueTakeMutexRecursive+0x80>
			{
				( pxMutex->u.xSemaphore.uxRecursiveCallCount )++;
  801538:	e0bffc17 	ldw	r2,-16(fp)
  80153c:	10800317 	ldw	r2,12(r2)
  801540:	10c00044 	addi	r3,r2,1
  801544:	e0bffc17 	ldw	r2,-16(fp)
  801548:	10c00315 	stw	r3,12(r2)
			{
				traceTAKE_MUTEX_RECURSIVE_FAILED( pxMutex );
			}
		}

		return xReturn;
  80154c:	e0bffb17 	ldw	r2,-20(fp)
	}
  801550:	e6ffff04 	addi	sp,fp,-4
  801554:	dfc00217 	ldw	ra,8(sp)
  801558:	df000117 	ldw	fp,4(sp)
  80155c:	dc000017 	ldw	r16,0(sp)
  801560:	dec00304 	addi	sp,sp,12
  801564:	f800283a 	ret

00801568 <xQueueCreateCountingSemaphore>:
/*-----------------------------------------------------------*/

#if( ( configUSE_COUNTING_SEMAPHORES == 1 ) && ( configSUPPORT_DYNAMIC_ALLOCATION == 1 ) )

	QueueHandle_t xQueueCreateCountingSemaphore( const UBaseType_t uxMaxCount, const UBaseType_t uxInitialCount )
	{
  801568:	defffb04 	addi	sp,sp,-20
  80156c:	dfc00415 	stw	ra,16(sp)
  801570:	df000315 	stw	fp,12(sp)
  801574:	df000304 	addi	fp,sp,12
  801578:	e13ffe15 	stw	r4,-8(fp)
  80157c:	e17fff15 	stw	r5,-4(fp)
	QueueHandle_t xHandle;

		configASSERT( uxMaxCount != 0 );
		configASSERT( uxInitialCount <= uxMaxCount );

		xHandle = xQueueGenericCreate( uxMaxCount, queueSEMAPHORE_QUEUE_ITEM_LENGTH, queueQUEUE_TYPE_COUNTING_SEMAPHORE );
  801580:	01800084 	movi	r6,2
  801584:	000b883a 	mov	r5,zero
  801588:	e13ffe17 	ldw	r4,-8(fp)
  80158c:	08012640 	call	801264 <xQueueGenericCreate>
  801590:	e0bffd15 	stw	r2,-12(fp)

		if( xHandle != NULL )
  801594:	e0bffd17 	ldw	r2,-12(fp)
  801598:	10000326 	beq	r2,zero,8015a8 <xQueueCreateCountingSemaphore+0x40>
		{
			( ( Queue_t * ) xHandle )->uxMessagesWaiting = uxInitialCount;
  80159c:	e0bffd17 	ldw	r2,-12(fp)
  8015a0:	e0ffff17 	ldw	r3,-4(fp)
  8015a4:	10c00e15 	stw	r3,56(r2)
		else
		{
			traceCREATE_COUNTING_SEMAPHORE_FAILED();
		}

		return xHandle;
  8015a8:	e0bffd17 	ldw	r2,-12(fp)
	}
  8015ac:	e037883a 	mov	sp,fp
  8015b0:	dfc00117 	ldw	ra,4(sp)
  8015b4:	df000017 	ldw	fp,0(sp)
  8015b8:	dec00204 	addi	sp,sp,8
  8015bc:	f800283a 	ret

008015c0 <xQueueGenericSend>:

#endif /* ( ( configUSE_COUNTING_SEMAPHORES == 1 ) && ( configSUPPORT_DYNAMIC_ALLOCATION == 1 ) ) */
/*-----------------------------------------------------------*/

BaseType_t xQueueGenericSend( QueueHandle_t xQueue, const void * const pvItemToQueue, TickType_t xTicksToWait, const BaseType_t xCopyPosition )
{
  8015c0:	defff504 	addi	sp,sp,-44
  8015c4:	dfc00a15 	stw	ra,40(sp)
  8015c8:	df000915 	stw	fp,36(sp)
  8015cc:	df000904 	addi	fp,sp,36
  8015d0:	e13ffc15 	stw	r4,-16(fp)
  8015d4:	e17ffd15 	stw	r5,-12(fp)
  8015d8:	e1bffe15 	stw	r6,-8(fp)
  8015dc:	e1ffff15 	stw	r7,-4(fp)
BaseType_t xEntryTimeSet = pdFALSE, xYieldRequired;
  8015e0:	e03ff715 	stw	zero,-36(fp)
TimeOut_t xTimeOut;
Queue_t * const pxQueue = xQueue;
  8015e4:	e0bffc17 	ldw	r2,-16(fp)
  8015e8:	e0bff815 	stw	r2,-32(fp)
	/*lint -save -e904 This function relaxes the coding standard somewhat to
	allow return statements within the function itself.  This is done in the
	interest of execution time efficiency. */
	for( ;; )
	{
		taskENTER_CRITICAL();
  8015ec:	0804ff40 	call	804ff4 <vTaskEnterCritical>
		{
			/* Is there room on the queue now?  The running task must be the
			highest priority task wanting to access the queue.  If the head item
			in the queue is to be overwritten then it does not matter if the
			queue is full. */
			if( ( pxQueue->uxMessagesWaiting < pxQueue->uxLength ) || ( xCopyPosition == queueOVERWRITE ) )
  8015f0:	e0bff817 	ldw	r2,-32(fp)
  8015f4:	10c00e17 	ldw	r3,56(r2)
  8015f8:	e0bff817 	ldw	r2,-32(fp)
  8015fc:	10800f17 	ldw	r2,60(r2)
  801600:	18800336 	bltu	r3,r2,801610 <xQueueGenericSend+0x50>
  801604:	e0bfff17 	ldw	r2,-4(fp)
  801608:	10800098 	cmpnei	r2,r2,2
  80160c:	1000151e 	bne	r2,zero,801664 <xQueueGenericSend+0xa4>
						}
					}
				}
				#else /* configUSE_QUEUE_SETS */
				{
					xYieldRequired = prvCopyDataToQueue( pxQueue, pvItemToQueue, xCopyPosition );
  801610:	e1bfff17 	ldw	r6,-4(fp)
  801614:	e17ffd17 	ldw	r5,-12(fp)
  801618:	e13ff817 	ldw	r4,-32(fp)
  80161c:	08021640 	call	802164 <prvCopyDataToQueue>
  801620:	e0bff915 	stw	r2,-28(fp)

					/* If there was a task waiting for data to arrive on the
					queue then unblock it now. */
					if( listLIST_IS_EMPTY( &( pxQueue->xTasksWaitingToReceive ) ) == pdFALSE )
  801624:	e0bff817 	ldw	r2,-32(fp)
  801628:	10800917 	ldw	r2,36(r2)
  80162c:	10000726 	beq	r2,zero,80164c <xQueueGenericSend+0x8c>
					{
						if( xTaskRemoveFromEventList( &( pxQueue->xTasksWaitingToReceive ) ) != pdFALSE )
  801630:	e0bff817 	ldw	r2,-32(fp)
  801634:	10800904 	addi	r2,r2,36
  801638:	1009883a 	mov	r4,r2
  80163c:	08046540 	call	804654 <xTaskRemoveFromEventList>
  801640:	10000526 	beq	r2,zero,801658 <xQueueGenericSend+0x98>
						{
							/* The unblocked task has a priority higher than
							our own so yield immediately.  Yes it is ok to do
							this from within the critical section - the kernel
							takes care of that. */
							queueYIELD_IF_USING_PREEMPTION();
  801644:	003b683a 	trap	0
  801648:	00000306 	br	801658 <xQueueGenericSend+0x98>
						else
						{
							mtCOVERAGE_TEST_MARKER();
						}
					}
					else if( xYieldRequired != pdFALSE )
  80164c:	e0bff917 	ldw	r2,-28(fp)
  801650:	10000126 	beq	r2,zero,801658 <xQueueGenericSend+0x98>
					{
						/* This path is a special case that will only get
						executed if the task was holding multiple mutexes and
						the mutexes were given back in an order that is
						different to that in which they were taken. */
						queueYIELD_IF_USING_PREEMPTION();
  801654:	003b683a 	trap	0
						mtCOVERAGE_TEST_MARKER();
					}
				}
				#endif /* configUSE_QUEUE_SETS */

				taskEXIT_CRITICAL();
  801658:	08050480 	call	805048 <vTaskExitCritical>
				return pdPASS;
  80165c:	00800044 	movi	r2,1
  801660:	00003f06 	br	801760 <xQueueGenericSend+0x1a0>
			}
			else
			{
				if( xTicksToWait == ( TickType_t ) 0 )
  801664:	e0bffe17 	ldw	r2,-8(fp)
  801668:	1000031e 	bne	r2,zero,801678 <xQueueGenericSend+0xb8>
				{
					/* The queue was full and no block time is specified (or
					the block time has expired) so leave now. */
					taskEXIT_CRITICAL();
  80166c:	08050480 	call	805048 <vTaskExitCritical>

					/* Return to the original privilege level before exiting
					the function. */
					traceQUEUE_SEND_FAILED( pxQueue );
					return errQUEUE_FULL;
  801670:	0005883a 	mov	r2,zero
  801674:	00003a06 	br	801760 <xQueueGenericSend+0x1a0>
				}
				else if( xEntryTimeSet == pdFALSE )
  801678:	e0bff717 	ldw	r2,-36(fp)
  80167c:	1000051e 	bne	r2,zero,801694 <xQueueGenericSend+0xd4>
				{
					/* The queue was full and a block time was specified so
					configure the timeout structure. */
					vTaskInternalSetTimeOutState( &xTimeOut );
  801680:	e0bffa04 	addi	r2,fp,-24
  801684:	1009883a 	mov	r4,r2
  801688:	080485c0 	call	80485c <vTaskInternalSetTimeOutState>
					xEntryTimeSet = pdTRUE;
  80168c:	00800044 	movi	r2,1
  801690:	e0bff715 	stw	r2,-36(fp)
					/* Entry time was already set. */
					mtCOVERAGE_TEST_MARKER();
				}
			}
		}
		taskEXIT_CRITICAL();
  801694:	08050480 	call	805048 <vTaskExitCritical>

		/* Interrupts and other tasks can send to and receive from the queue
		now the critical section has been exited. */

		vTaskSuspendAll();
  801698:	08040940 	call	804094 <vTaskSuspendAll>
		prvLockQueue( pxQueue );
  80169c:	0804ff40 	call	804ff4 <vTaskEnterCritical>
  8016a0:	e0bff817 	ldw	r2,-32(fp)
  8016a4:	10801103 	ldbu	r2,68(r2)
  8016a8:	10803fcc 	andi	r2,r2,255
  8016ac:	1080201c 	xori	r2,r2,128
  8016b0:	10bfe004 	addi	r2,r2,-128
  8016b4:	10bfffd8 	cmpnei	r2,r2,-1
  8016b8:	1000021e 	bne	r2,zero,8016c4 <xQueueGenericSend+0x104>
  8016bc:	e0bff817 	ldw	r2,-32(fp)
  8016c0:	10001105 	stb	zero,68(r2)
  8016c4:	e0bff817 	ldw	r2,-32(fp)
  8016c8:	10801143 	ldbu	r2,69(r2)
  8016cc:	10803fcc 	andi	r2,r2,255
  8016d0:	1080201c 	xori	r2,r2,128
  8016d4:	10bfe004 	addi	r2,r2,-128
  8016d8:	10bfffd8 	cmpnei	r2,r2,-1
  8016dc:	1000021e 	bne	r2,zero,8016e8 <xQueueGenericSend+0x128>
  8016e0:	e0bff817 	ldw	r2,-32(fp)
  8016e4:	10001145 	stb	zero,69(r2)
  8016e8:	08050480 	call	805048 <vTaskExitCritical>

		/* Update the timeout state to see if it has expired yet. */
		if( xTaskCheckForTimeOut( &xTimeOut, &xTicksToWait ) == pdFALSE )
  8016ec:	e0fffe04 	addi	r3,fp,-8
  8016f0:	e0bffa04 	addi	r2,fp,-24
  8016f4:	180b883a 	mov	r5,r3
  8016f8:	1009883a 	mov	r4,r2
  8016fc:	08048980 	call	804898 <xTaskCheckForTimeOut>
  801700:	1000131e 	bne	r2,zero,801750 <xQueueGenericSend+0x190>
		{
			if( prvIsQueueFull( pxQueue ) != pdFALSE )
  801704:	e13ff817 	ldw	r4,-32(fp)
  801708:	08025180 	call	802518 <prvIsQueueFull>
  80170c:	10000c26 	beq	r2,zero,801740 <xQueueGenericSend+0x180>
			{
				traceBLOCKING_ON_QUEUE_SEND( pxQueue );
				vTaskPlaceOnEventList( &( pxQueue->xTasksWaitingToSend ), xTicksToWait );
  801710:	e0bff817 	ldw	r2,-32(fp)
  801714:	10800404 	addi	r2,r2,16
  801718:	e0fffe17 	ldw	r3,-8(fp)
  80171c:	180b883a 	mov	r5,r3
  801720:	1009883a 	mov	r4,r2
  801724:	08045a00 	call	8045a0 <vTaskPlaceOnEventList>
				/* Unlocking the queue means queue events can effect the
				event list.  It is possible that interrupts occurring now
				remove this task from the event list again - but as the
				scheduler is suspended the task will go onto the pending
				ready last instead of the actual ready list. */
				prvUnlockQueue( pxQueue );
  801728:	e13ff817 	ldw	r4,-32(fp)
  80172c:	080238c0 	call	80238c <prvUnlockQueue>
				/* Resuming the scheduler will move tasks from the pending
				ready list into the ready list - so it is feasible that this
				task is already in a ready list before it yields - in which
				case the yield will not cause a context switch unless there
				is also a higher priority task in the pending ready list. */
				if( xTaskResumeAll() == pdFALSE )
  801730:	08040c00 	call	8040c0 <xTaskResumeAll>
  801734:	103fad1e 	bne	r2,zero,8015ec <__alt_mem_onchip_memory2_0+0xff7815ec>
				{
					portYIELD_WITHIN_API();
  801738:	003b683a 	trap	0
  80173c:	003fab06 	br	8015ec <__alt_mem_onchip_memory2_0+0xff7815ec>
				}
			}
			else
			{
				/* Try again. */
				prvUnlockQueue( pxQueue );
  801740:	e13ff817 	ldw	r4,-32(fp)
  801744:	080238c0 	call	80238c <prvUnlockQueue>
				( void ) xTaskResumeAll();
  801748:	08040c00 	call	8040c0 <xTaskResumeAll>
  80174c:	003fa706 	br	8015ec <__alt_mem_onchip_memory2_0+0xff7815ec>
			}
		}
		else
		{
			/* The timeout has expired. */
			prvUnlockQueue( pxQueue );
  801750:	e13ff817 	ldw	r4,-32(fp)
  801754:	080238c0 	call	80238c <prvUnlockQueue>
			( void ) xTaskResumeAll();
  801758:	08040c00 	call	8040c0 <xTaskResumeAll>

			traceQUEUE_SEND_FAILED( pxQueue );
			return errQUEUE_FULL;
  80175c:	0005883a 	mov	r2,zero
		}
	} /*lint -restore */
}
  801760:	e037883a 	mov	sp,fp
  801764:	dfc00117 	ldw	ra,4(sp)
  801768:	df000017 	ldw	fp,0(sp)
  80176c:	dec00204 	addi	sp,sp,8
  801770:	f800283a 	ret

00801774 <xQueueGenericSendFromISR>:
/*-----------------------------------------------------------*/

BaseType_t xQueueGenericSendFromISR( QueueHandle_t xQueue, const void * const pvItemToQueue, BaseType_t * const pxHigherPriorityTaskWoken, const BaseType_t xCopyPosition )
{
  801774:	defff504 	addi	sp,sp,-44
  801778:	dfc00a15 	stw	ra,40(sp)
  80177c:	df000915 	stw	fp,36(sp)
  801780:	df000904 	addi	fp,sp,36
  801784:	e13ffc15 	stw	r4,-16(fp)
  801788:	e17ffd15 	stw	r5,-12(fp)
  80178c:	e1bffe15 	stw	r6,-8(fp)
  801790:	e1ffff15 	stw	r7,-4(fp)
BaseType_t xReturn;
UBaseType_t uxSavedInterruptStatus;
Queue_t * const pxQueue = xQueue;
  801794:	e0bffc17 	ldw	r2,-16(fp)
  801798:	e0bff815 	stw	r2,-32(fp)
	/* Similar to xQueueGenericSend, except without blocking if there is no room
	in the queue.  Also don't directly wake a task that was blocked on a queue
	read, instead return a flag to say whether a context switch is required or
	not (i.e. has a task with a higher priority than us been woken by this
	post). */
	uxSavedInterruptStatus = portSET_INTERRUPT_MASK_FROM_ISR();
  80179c:	e03ff915 	stw	zero,-28(fp)
	{
		if( ( pxQueue->uxMessagesWaiting < pxQueue->uxLength ) || ( xCopyPosition == queueOVERWRITE ) )
  8017a0:	e0bff817 	ldw	r2,-32(fp)
  8017a4:	10c00e17 	ldw	r3,56(r2)
  8017a8:	e0bff817 	ldw	r2,-32(fp)
  8017ac:	10800f17 	ldw	r2,60(r2)
  8017b0:	18800336 	bltu	r3,r2,8017c0 <xQueueGenericSendFromISR+0x4c>
  8017b4:	e0bfff17 	ldw	r2,-4(fp)
  8017b8:	10800098 	cmpnei	r2,r2,2
  8017bc:	1000231e 	bne	r2,zero,80184c <xQueueGenericSendFromISR+0xd8>
		{
			const int8_t cTxLock = pxQueue->cTxLock;
  8017c0:	e0bff817 	ldw	r2,-32(fp)
  8017c4:	10801143 	ldbu	r2,69(r2)
  8017c8:	e0bffa05 	stb	r2,-24(fp)
			const UBaseType_t uxPreviousMessagesWaiting = pxQueue->uxMessagesWaiting;
  8017cc:	e0bff817 	ldw	r2,-32(fp)
  8017d0:	10800e17 	ldw	r2,56(r2)
  8017d4:	e0bffb15 	stw	r2,-20(fp)
			/* Semaphores use xQueueGiveFromISR(), so pxQueue will not be a
			semaphore or mutex.  That means prvCopyDataToQueue() cannot result
			in a task disinheriting a priority and prvCopyDataToQueue() can be
			called here even though the disinherit function does not check if
			the scheduler is suspended before accessing the ready lists. */
			( void ) prvCopyDataToQueue( pxQueue, pvItemToQueue, xCopyPosition );
  8017d8:	e1bfff17 	ldw	r6,-4(fp)
  8017dc:	e17ffd17 	ldw	r5,-12(fp)
  8017e0:	e13ff817 	ldw	r4,-32(fp)
  8017e4:	08021640 	call	802164 <prvCopyDataToQueue>

			/* The event list is not altered if the queue is locked.  This will
			be done when the queue is unlocked later. */
			if( cTxLock == queueUNLOCKED )
  8017e8:	e0bffa07 	ldb	r2,-24(fp)
  8017ec:	10bfffd8 	cmpnei	r2,r2,-1
  8017f0:	10000e1e 	bne	r2,zero,80182c <xQueueGenericSendFromISR+0xb8>
						}
					}
				}
				#else /* configUSE_QUEUE_SETS */
				{
					if( listLIST_IS_EMPTY( &( pxQueue->xTasksWaitingToReceive ) ) == pdFALSE )
  8017f4:	e0bff817 	ldw	r2,-32(fp)
  8017f8:	10800917 	ldw	r2,36(r2)
  8017fc:	10001026 	beq	r2,zero,801840 <xQueueGenericSendFromISR+0xcc>
					{
						if( xTaskRemoveFromEventList( &( pxQueue->xTasksWaitingToReceive ) ) != pdFALSE )
  801800:	e0bff817 	ldw	r2,-32(fp)
  801804:	10800904 	addi	r2,r2,36
  801808:	1009883a 	mov	r4,r2
  80180c:	08046540 	call	804654 <xTaskRemoveFromEventList>
  801810:	10000b26 	beq	r2,zero,801840 <xQueueGenericSendFromISR+0xcc>
						{
							/* The task waiting has a higher priority so record that a
							context	switch is required. */
							if( pxHigherPriorityTaskWoken != NULL )
  801814:	e0bffe17 	ldw	r2,-8(fp)
  801818:	10000926 	beq	r2,zero,801840 <xQueueGenericSendFromISR+0xcc>
							{
								*pxHigherPriorityTaskWoken = pdTRUE;
  80181c:	e0bffe17 	ldw	r2,-8(fp)
  801820:	00c00044 	movi	r3,1
  801824:	10c00015 	stw	r3,0(r2)
  801828:	00000506 	br	801840 <xQueueGenericSendFromISR+0xcc>
			}
			else
			{
				/* Increment the lock count so the task that unlocks the queue
				knows that data was posted while it was locked. */
				pxQueue->cTxLock = ( int8_t ) ( cTxLock + 1 );
  80182c:	e0bffa03 	ldbu	r2,-24(fp)
  801830:	10800044 	addi	r2,r2,1
  801834:	1007883a 	mov	r3,r2
  801838:	e0bff817 	ldw	r2,-32(fp)
  80183c:	10c01145 	stb	r3,69(r2)
			}

			xReturn = pdPASS;
  801840:	00800044 	movi	r2,1
  801844:	e0bff715 	stw	r2,-36(fp)
	not (i.e. has a task with a higher priority than us been woken by this
	post). */
	uxSavedInterruptStatus = portSET_INTERRUPT_MASK_FROM_ISR();
	{
		if( ( pxQueue->uxMessagesWaiting < pxQueue->uxLength ) || ( xCopyPosition == queueOVERWRITE ) )
		{
  801848:	00000106 	br	801850 <xQueueGenericSendFromISR+0xdc>
			xReturn = pdPASS;
		}
		else
		{
			traceQUEUE_SEND_FROM_ISR_FAILED( pxQueue );
			xReturn = errQUEUE_FULL;
  80184c:	e03ff715 	stw	zero,-36(fp)
		}
	}
	portCLEAR_INTERRUPT_MASK_FROM_ISR( uxSavedInterruptStatus );

	return xReturn;
  801850:	e0bff717 	ldw	r2,-36(fp)
}
  801854:	e037883a 	mov	sp,fp
  801858:	dfc00117 	ldw	ra,4(sp)
  80185c:	df000017 	ldw	fp,0(sp)
  801860:	dec00204 	addi	sp,sp,8
  801864:	f800283a 	ret

00801868 <xQueueGiveFromISR>:
/*-----------------------------------------------------------*/

BaseType_t xQueueGiveFromISR( QueueHandle_t xQueue, BaseType_t * const pxHigherPriorityTaskWoken )
{
  801868:	defff704 	addi	sp,sp,-36
  80186c:	dfc00815 	stw	ra,32(sp)
  801870:	df000715 	stw	fp,28(sp)
  801874:	df000704 	addi	fp,sp,28
  801878:	e13ffe15 	stw	r4,-8(fp)
  80187c:	e17fff15 	stw	r5,-4(fp)
BaseType_t xReturn;
UBaseType_t uxSavedInterruptStatus;
Queue_t * const pxQueue = xQueue;
  801880:	e0bffe17 	ldw	r2,-8(fp)
  801884:	e0bffa15 	stw	r2,-24(fp)
	safe API to ensure interrupt entry is as fast and as simple as possible.
	More information (albeit Cortex-M specific) is provided on the following
	link: http://www.freertos.org/RTOS-Cortex-M3-M4.html */
	portASSERT_IF_INTERRUPT_PRIORITY_INVALID();

	uxSavedInterruptStatus = portSET_INTERRUPT_MASK_FROM_ISR();
  801888:	e03ffb15 	stw	zero,-20(fp)
	{
		const UBaseType_t uxMessagesWaiting = pxQueue->uxMessagesWaiting;
  80188c:	e0bffa17 	ldw	r2,-24(fp)
  801890:	10800e17 	ldw	r2,56(r2)
  801894:	e0bffc15 	stw	r2,-16(fp)

		/* When the queue is used to implement a semaphore no data is ever
		moved through the queue but it is still valid to see if the queue 'has
		space'. */
		if( uxMessagesWaiting < pxQueue->uxLength )
  801898:	e0bffa17 	ldw	r2,-24(fp)
  80189c:	10800f17 	ldw	r2,60(r2)
  8018a0:	e0fffc17 	ldw	r3,-16(fp)
  8018a4:	1880202e 	bgeu	r3,r2,801928 <xQueueGiveFromISR+0xc0>
		{
			const int8_t cTxLock = pxQueue->cTxLock;
  8018a8:	e0bffa17 	ldw	r2,-24(fp)
  8018ac:	10801143 	ldbu	r2,69(r2)
  8018b0:	e0bffd05 	stb	r2,-12(fp)
			holder - and if there is a mutex holder then the mutex cannot be
			given from an ISR.  As this is the ISR version of the function it
			can be assumed there is no mutex holder and no need to determine if
			priority disinheritance is needed.  Simply increase the count of
			messages (semaphores) available. */
			pxQueue->uxMessagesWaiting = uxMessagesWaiting + ( UBaseType_t ) 1;
  8018b4:	e0bffc17 	ldw	r2,-16(fp)
  8018b8:	10c00044 	addi	r3,r2,1
  8018bc:	e0bffa17 	ldw	r2,-24(fp)
  8018c0:	10c00e15 	stw	r3,56(r2)

			/* The event list is not altered if the queue is locked.  This will
			be done when the queue is unlocked later. */
			if( cTxLock == queueUNLOCKED )
  8018c4:	e0bffd07 	ldb	r2,-12(fp)
  8018c8:	10bfffd8 	cmpnei	r2,r2,-1
  8018cc:	10000e1e 	bne	r2,zero,801908 <xQueueGiveFromISR+0xa0>
						}
					}
				}
				#else /* configUSE_QUEUE_SETS */
				{
					if( listLIST_IS_EMPTY( &( pxQueue->xTasksWaitingToReceive ) ) == pdFALSE )
  8018d0:	e0bffa17 	ldw	r2,-24(fp)
  8018d4:	10800917 	ldw	r2,36(r2)
  8018d8:	10001026 	beq	r2,zero,80191c <xQueueGiveFromISR+0xb4>
					{
						if( xTaskRemoveFromEventList( &( pxQueue->xTasksWaitingToReceive ) ) != pdFALSE )
  8018dc:	e0bffa17 	ldw	r2,-24(fp)
  8018e0:	10800904 	addi	r2,r2,36
  8018e4:	1009883a 	mov	r4,r2
  8018e8:	08046540 	call	804654 <xTaskRemoveFromEventList>
  8018ec:	10000b26 	beq	r2,zero,80191c <xQueueGiveFromISR+0xb4>
						{
							/* The task waiting has a higher priority so record that a
							context	switch is required. */
							if( pxHigherPriorityTaskWoken != NULL )
  8018f0:	e0bfff17 	ldw	r2,-4(fp)
  8018f4:	10000926 	beq	r2,zero,80191c <xQueueGiveFromISR+0xb4>
							{
								*pxHigherPriorityTaskWoken = pdTRUE;
  8018f8:	e0bfff17 	ldw	r2,-4(fp)
  8018fc:	00c00044 	movi	r3,1
  801900:	10c00015 	stw	r3,0(r2)
  801904:	00000506 	br	80191c <xQueueGiveFromISR+0xb4>
			}
			else
			{
				/* Increment the lock count so the task that unlocks the queue
				knows that data was posted while it was locked. */
				pxQueue->cTxLock = ( int8_t ) ( cTxLock + 1 );
  801908:	e0bffd03 	ldbu	r2,-12(fp)
  80190c:	10800044 	addi	r2,r2,1
  801910:	1007883a 	mov	r3,r2
  801914:	e0bffa17 	ldw	r2,-24(fp)
  801918:	10c01145 	stb	r3,69(r2)
			}

			xReturn = pdPASS;
  80191c:	00800044 	movi	r2,1
  801920:	e0bff915 	stw	r2,-28(fp)
  801924:	00000106 	br	80192c <xQueueGiveFromISR+0xc4>
		}
		else
		{
			traceQUEUE_SEND_FROM_ISR_FAILED( pxQueue );
			xReturn = errQUEUE_FULL;
  801928:	e03ff915 	stw	zero,-28(fp)
		}
	}
	portCLEAR_INTERRUPT_MASK_FROM_ISR( uxSavedInterruptStatus );

	return xReturn;
  80192c:	e0bff917 	ldw	r2,-28(fp)
}
  801930:	e037883a 	mov	sp,fp
  801934:	dfc00117 	ldw	ra,4(sp)
  801938:	df000017 	ldw	fp,0(sp)
  80193c:	dec00204 	addi	sp,sp,8
  801940:	f800283a 	ret

00801944 <xQueueReceive>:
/*-----------------------------------------------------------*/

BaseType_t xQueueReceive( QueueHandle_t xQueue, void * const pvBuffer, TickType_t xTicksToWait )
{
  801944:	defff604 	addi	sp,sp,-40
  801948:	dfc00915 	stw	ra,36(sp)
  80194c:	df000815 	stw	fp,32(sp)
  801950:	df000804 	addi	fp,sp,32
  801954:	e13ffd15 	stw	r4,-12(fp)
  801958:	e17ffe15 	stw	r5,-8(fp)
  80195c:	e1bfff15 	stw	r6,-4(fp)
BaseType_t xEntryTimeSet = pdFALSE;
  801960:	e03ff815 	stw	zero,-32(fp)
TimeOut_t xTimeOut;
Queue_t * const pxQueue = xQueue;
  801964:	e0bffd17 	ldw	r2,-12(fp)
  801968:	e0bff915 	stw	r2,-28(fp)
	/*lint -save -e904  This function relaxes the coding standard somewhat to
	allow return statements within the function itself.  This is done in the
	interest of execution time efficiency. */
	for( ;; )
	{
		taskENTER_CRITICAL();
  80196c:	0804ff40 	call	804ff4 <vTaskEnterCritical>
		{
			const UBaseType_t uxMessagesWaiting = pxQueue->uxMessagesWaiting;
  801970:	e0bff917 	ldw	r2,-28(fp)
  801974:	10800e17 	ldw	r2,56(r2)
  801978:	e0bffa15 	stw	r2,-24(fp)

			/* Is there data in the queue now?  To be running the calling task
			must be the highest priority task wanting to access the queue. */
			if( uxMessagesWaiting > ( UBaseType_t ) 0 )
  80197c:	e0bffa17 	ldw	r2,-24(fp)
  801980:	10001326 	beq	r2,zero,8019d0 <xQueueReceive+0x8c>
			{
				/* Data available, remove one item. */
				prvCopyDataFromQueue( pxQueue, pvBuffer );
  801984:	e17ffe17 	ldw	r5,-8(fp)
  801988:	e13ff917 	ldw	r4,-28(fp)
  80198c:	08022f00 	call	8022f0 <prvCopyDataFromQueue>
				traceQUEUE_RECEIVE( pxQueue );
				pxQueue->uxMessagesWaiting = uxMessagesWaiting - ( UBaseType_t ) 1;
  801990:	e0bffa17 	ldw	r2,-24(fp)
  801994:	10ffffc4 	addi	r3,r2,-1
  801998:	e0bff917 	ldw	r2,-28(fp)
  80199c:	10c00e15 	stw	r3,56(r2)

				/* There is now space in the queue, were any tasks waiting to
				post to the queue?  If so, unblock the highest priority waiting
				task. */
				if( listLIST_IS_EMPTY( &( pxQueue->xTasksWaitingToSend ) ) == pdFALSE )
  8019a0:	e0bff917 	ldw	r2,-28(fp)
  8019a4:	10800417 	ldw	r2,16(r2)
  8019a8:	10000626 	beq	r2,zero,8019c4 <xQueueReceive+0x80>
				{
					if( xTaskRemoveFromEventList( &( pxQueue->xTasksWaitingToSend ) ) != pdFALSE )
  8019ac:	e0bff917 	ldw	r2,-28(fp)
  8019b0:	10800404 	addi	r2,r2,16
  8019b4:	1009883a 	mov	r4,r2
  8019b8:	08046540 	call	804654 <xTaskRemoveFromEventList>
  8019bc:	10000126 	beq	r2,zero,8019c4 <xQueueReceive+0x80>
					{
						queueYIELD_IF_USING_PREEMPTION();
  8019c0:	003b683a 	trap	0
				else
				{
					mtCOVERAGE_TEST_MARKER();
				}

				taskEXIT_CRITICAL();
  8019c4:	08050480 	call	805048 <vTaskExitCritical>
				return pdPASS;
  8019c8:	00800044 	movi	r2,1
  8019cc:	00004206 	br	801ad8 <xQueueReceive+0x194>
			}
			else
			{
				if( xTicksToWait == ( TickType_t ) 0 )
  8019d0:	e0bfff17 	ldw	r2,-4(fp)
  8019d4:	1000031e 	bne	r2,zero,8019e4 <xQueueReceive+0xa0>
				{
					/* The queue was empty and no block time is specified (or
					the block time has expired) so leave now. */
					taskEXIT_CRITICAL();
  8019d8:	08050480 	call	805048 <vTaskExitCritical>
					traceQUEUE_RECEIVE_FAILED( pxQueue );
					return errQUEUE_EMPTY;
  8019dc:	0005883a 	mov	r2,zero
  8019e0:	00003d06 	br	801ad8 <xQueueReceive+0x194>
				}
				else if( xEntryTimeSet == pdFALSE )
  8019e4:	e0bff817 	ldw	r2,-32(fp)
  8019e8:	1000051e 	bne	r2,zero,801a00 <xQueueReceive+0xbc>
				{
					/* The queue was empty and a block time was specified so
					configure the timeout structure. */
					vTaskInternalSetTimeOutState( &xTimeOut );
  8019ec:	e0bffb04 	addi	r2,fp,-20
  8019f0:	1009883a 	mov	r4,r2
  8019f4:	080485c0 	call	80485c <vTaskInternalSetTimeOutState>
					xEntryTimeSet = pdTRUE;
  8019f8:	00800044 	movi	r2,1
  8019fc:	e0bff815 	stw	r2,-32(fp)
					/* Entry time was already set. */
					mtCOVERAGE_TEST_MARKER();
				}
			}
		}
		taskEXIT_CRITICAL();
  801a00:	08050480 	call	805048 <vTaskExitCritical>

		/* Interrupts and other tasks can send to and receive from the queue
		now the critical section has been exited. */

		vTaskSuspendAll();
  801a04:	08040940 	call	804094 <vTaskSuspendAll>
		prvLockQueue( pxQueue );
  801a08:	0804ff40 	call	804ff4 <vTaskEnterCritical>
  801a0c:	e0bff917 	ldw	r2,-28(fp)
  801a10:	10801103 	ldbu	r2,68(r2)
  801a14:	10803fcc 	andi	r2,r2,255
  801a18:	1080201c 	xori	r2,r2,128
  801a1c:	10bfe004 	addi	r2,r2,-128
  801a20:	10bfffd8 	cmpnei	r2,r2,-1
  801a24:	1000021e 	bne	r2,zero,801a30 <xQueueReceive+0xec>
  801a28:	e0bff917 	ldw	r2,-28(fp)
  801a2c:	10001105 	stb	zero,68(r2)
  801a30:	e0bff917 	ldw	r2,-28(fp)
  801a34:	10801143 	ldbu	r2,69(r2)
  801a38:	10803fcc 	andi	r2,r2,255
  801a3c:	1080201c 	xori	r2,r2,128
  801a40:	10bfe004 	addi	r2,r2,-128
  801a44:	10bfffd8 	cmpnei	r2,r2,-1
  801a48:	1000021e 	bne	r2,zero,801a54 <xQueueReceive+0x110>
  801a4c:	e0bff917 	ldw	r2,-28(fp)
  801a50:	10001145 	stb	zero,69(r2)
  801a54:	08050480 	call	805048 <vTaskExitCritical>

		/* Update the timeout state to see if it has expired yet. */
		if( xTaskCheckForTimeOut( &xTimeOut, &xTicksToWait ) == pdFALSE )
  801a58:	e0ffff04 	addi	r3,fp,-4
  801a5c:	e0bffb04 	addi	r2,fp,-20
  801a60:	180b883a 	mov	r5,r3
  801a64:	1009883a 	mov	r4,r2
  801a68:	08048980 	call	804898 <xTaskCheckForTimeOut>
  801a6c:	1000131e 	bne	r2,zero,801abc <xQueueReceive+0x178>
		{
			/* The timeout has not expired.  If the queue is still empty place
			the task on the list of tasks waiting to receive from the queue. */
			if( prvIsQueueEmpty( pxQueue ) != pdFALSE )
  801a70:	e13ff917 	ldw	r4,-28(fp)
  801a74:	08024800 	call	802480 <prvIsQueueEmpty>
  801a78:	10000c26 	beq	r2,zero,801aac <xQueueReceive+0x168>
			{
				traceBLOCKING_ON_QUEUE_RECEIVE( pxQueue );
				vTaskPlaceOnEventList( &( pxQueue->xTasksWaitingToReceive ), xTicksToWait );
  801a7c:	e0bff917 	ldw	r2,-28(fp)
  801a80:	10800904 	addi	r2,r2,36
  801a84:	e0ffff17 	ldw	r3,-4(fp)
  801a88:	180b883a 	mov	r5,r3
  801a8c:	1009883a 	mov	r4,r2
  801a90:	08045a00 	call	8045a0 <vTaskPlaceOnEventList>
				prvUnlockQueue( pxQueue );
  801a94:	e13ff917 	ldw	r4,-28(fp)
  801a98:	080238c0 	call	80238c <prvUnlockQueue>
				if( xTaskResumeAll() == pdFALSE )
  801a9c:	08040c00 	call	8040c0 <xTaskResumeAll>
  801aa0:	103fb21e 	bne	r2,zero,80196c <__alt_mem_onchip_memory2_0+0xff78196c>
				{
					portYIELD_WITHIN_API();
  801aa4:	003b683a 	trap	0
  801aa8:	003fb006 	br	80196c <__alt_mem_onchip_memory2_0+0xff78196c>
			}
			else
			{
				/* The queue contains data again.  Loop back to try and read the
				data. */
				prvUnlockQueue( pxQueue );
  801aac:	e13ff917 	ldw	r4,-28(fp)
  801ab0:	080238c0 	call	80238c <prvUnlockQueue>
				( void ) xTaskResumeAll();
  801ab4:	08040c00 	call	8040c0 <xTaskResumeAll>
  801ab8:	003fac06 	br	80196c <__alt_mem_onchip_memory2_0+0xff78196c>
		}
		else
		{
			/* Timed out.  If there is no data in the queue exit, otherwise loop
			back and attempt to read the data. */
			prvUnlockQueue( pxQueue );
  801abc:	e13ff917 	ldw	r4,-28(fp)
  801ac0:	080238c0 	call	80238c <prvUnlockQueue>
			( void ) xTaskResumeAll();
  801ac4:	08040c00 	call	8040c0 <xTaskResumeAll>

			if( prvIsQueueEmpty( pxQueue ) != pdFALSE )
  801ac8:	e13ff917 	ldw	r4,-28(fp)
  801acc:	08024800 	call	802480 <prvIsQueueEmpty>
  801ad0:	103fa626 	beq	r2,zero,80196c <__alt_mem_onchip_memory2_0+0xff78196c>
			{
				traceQUEUE_RECEIVE_FAILED( pxQueue );
				return errQUEUE_EMPTY;
  801ad4:	0005883a 	mov	r2,zero
			{
				mtCOVERAGE_TEST_MARKER();
			}
		}
	} /*lint -restore */
}
  801ad8:	e037883a 	mov	sp,fp
  801adc:	dfc00117 	ldw	ra,4(sp)
  801ae0:	df000017 	ldw	fp,0(sp)
  801ae4:	dec00204 	addi	sp,sp,8
  801ae8:	f800283a 	ret

00801aec <xQueueSemaphoreTake>:
/*-----------------------------------------------------------*/

BaseType_t xQueueSemaphoreTake( QueueHandle_t xQueue, TickType_t xTicksToWait )
{
  801aec:	defff504 	addi	sp,sp,-44
  801af0:	dfc00a15 	stw	ra,40(sp)
  801af4:	df000915 	stw	fp,36(sp)
  801af8:	df000904 	addi	fp,sp,36
  801afc:	e13ffe15 	stw	r4,-8(fp)
  801b00:	e17fff15 	stw	r5,-4(fp)
BaseType_t xEntryTimeSet = pdFALSE;
  801b04:	e03ff715 	stw	zero,-36(fp)
TimeOut_t xTimeOut;
Queue_t * const pxQueue = xQueue;
  801b08:	e0bffe17 	ldw	r2,-8(fp)
  801b0c:	e0bff915 	stw	r2,-28(fp)

#if( configUSE_MUTEXES == 1 )
	BaseType_t xInheritanceOccurred = pdFALSE;
  801b10:	e03ff815 	stw	zero,-32(fp)
	/*lint -save -e904 This function relaxes the coding standard somewhat to allow return
	statements within the function itself.  This is done in the interest
	of execution time efficiency. */
	for( ;; )
	{
		taskENTER_CRITICAL();
  801b14:	0804ff40 	call	804ff4 <vTaskEnterCritical>
		{
			/* Semaphores are queues with an item size of 0, and where the
			number of messages in the queue is the semaphore's count value. */
			const UBaseType_t uxSemaphoreCount = pxQueue->uxMessagesWaiting;
  801b18:	e0bff917 	ldw	r2,-28(fp)
  801b1c:	10800e17 	ldw	r2,56(r2)
  801b20:	e0bffa15 	stw	r2,-24(fp)

			/* Is there data in the queue now?  To be running the calling task
			must be the highest priority task wanting to access the queue. */
			if( uxSemaphoreCount > ( UBaseType_t ) 0 )
  801b24:	e0bffa17 	ldw	r2,-24(fp)
  801b28:	10001726 	beq	r2,zero,801b88 <xQueueSemaphoreTake+0x9c>
			{
				traceQUEUE_RECEIVE( pxQueue );

				/* Semaphores are queues with a data size of zero and where the
				messages waiting is the semaphore's count.  Reduce the count. */
				pxQueue->uxMessagesWaiting = uxSemaphoreCount - ( UBaseType_t ) 1;
  801b2c:	e0bffa17 	ldw	r2,-24(fp)
  801b30:	10ffffc4 	addi	r3,r2,-1
  801b34:	e0bff917 	ldw	r2,-28(fp)
  801b38:	10c00e15 	stw	r3,56(r2)

				#if ( configUSE_MUTEXES == 1 )
				{
					if( pxQueue->uxQueueType == queueQUEUE_IS_MUTEX )
  801b3c:	e0bff917 	ldw	r2,-28(fp)
  801b40:	10800017 	ldw	r2,0(r2)
  801b44:	1000041e 	bne	r2,zero,801b58 <xQueueSemaphoreTake+0x6c>
					{
						/* Record the information required to implement
						priority inheritance should it become necessary. */
						pxQueue->u.xSemaphore.xMutexHolder = pvTaskIncrementMutexHeldCount();
  801b48:	08050ec0 	call	8050ec <pvTaskIncrementMutexHeldCount>
  801b4c:	1007883a 	mov	r3,r2
  801b50:	e0bff917 	ldw	r2,-28(fp)
  801b54:	10c00215 	stw	r3,8(r2)
				}
				#endif /* configUSE_MUTEXES */

				/* Check to see if other tasks are blocked waiting to give the
				semaphore, and if so, unblock the highest priority such task. */
				if( listLIST_IS_EMPTY( &( pxQueue->xTasksWaitingToSend ) ) == pdFALSE )
  801b58:	e0bff917 	ldw	r2,-28(fp)
  801b5c:	10800417 	ldw	r2,16(r2)
  801b60:	10000626 	beq	r2,zero,801b7c <xQueueSemaphoreTake+0x90>
				{
					if( xTaskRemoveFromEventList( &( pxQueue->xTasksWaitingToSend ) ) != pdFALSE )
  801b64:	e0bff917 	ldw	r2,-28(fp)
  801b68:	10800404 	addi	r2,r2,16
  801b6c:	1009883a 	mov	r4,r2
  801b70:	08046540 	call	804654 <xTaskRemoveFromEventList>
  801b74:	10000126 	beq	r2,zero,801b7c <xQueueSemaphoreTake+0x90>
					{
						queueYIELD_IF_USING_PREEMPTION();
  801b78:	003b683a 	trap	0
				else
				{
					mtCOVERAGE_TEST_MARKER();
				}

				taskEXIT_CRITICAL();
  801b7c:	08050480 	call	805048 <vTaskExitCritical>
				return pdPASS;
  801b80:	00800044 	movi	r2,1
  801b84:	00005806 	br	801ce8 <xQueueSemaphoreTake+0x1fc>
			}
			else
			{
				if( xTicksToWait == ( TickType_t ) 0 )
  801b88:	e0bfff17 	ldw	r2,-4(fp)
  801b8c:	1000031e 	bne	r2,zero,801b9c <xQueueSemaphoreTake+0xb0>
					}
					#endif /* configUSE_MUTEXES */

					/* The semaphore count was 0 and no block time is specified
					(or the block time has expired) so exit now. */
					taskEXIT_CRITICAL();
  801b90:	08050480 	call	805048 <vTaskExitCritical>
					traceQUEUE_RECEIVE_FAILED( pxQueue );
					return errQUEUE_EMPTY;
  801b94:	0005883a 	mov	r2,zero
  801b98:	00005306 	br	801ce8 <xQueueSemaphoreTake+0x1fc>
				}
				else if( xEntryTimeSet == pdFALSE )
  801b9c:	e0bff717 	ldw	r2,-36(fp)
  801ba0:	1000051e 	bne	r2,zero,801bb8 <xQueueSemaphoreTake+0xcc>
				{
					/* The semaphore count was 0 and a block time was specified
					so configure the timeout structure ready to block. */
					vTaskInternalSetTimeOutState( &xTimeOut );
  801ba4:	e0bffc04 	addi	r2,fp,-16
  801ba8:	1009883a 	mov	r4,r2
  801bac:	080485c0 	call	80485c <vTaskInternalSetTimeOutState>
					xEntryTimeSet = pdTRUE;
  801bb0:	00800044 	movi	r2,1
  801bb4:	e0bff715 	stw	r2,-36(fp)
					/* Entry time was already set. */
					mtCOVERAGE_TEST_MARKER();
				}
			}
		}
		taskEXIT_CRITICAL();
  801bb8:	08050480 	call	805048 <vTaskExitCritical>

		/* Interrupts and other tasks can give to and take from the semaphore
		now the critical section has been exited. */

		vTaskSuspendAll();
  801bbc:	08040940 	call	804094 <vTaskSuspendAll>
		prvLockQueue( pxQueue );
  801bc0:	0804ff40 	call	804ff4 <vTaskEnterCritical>
  801bc4:	e0bff917 	ldw	r2,-28(fp)
  801bc8:	10801103 	ldbu	r2,68(r2)
  801bcc:	10803fcc 	andi	r2,r2,255
  801bd0:	1080201c 	xori	r2,r2,128
  801bd4:	10bfe004 	addi	r2,r2,-128
  801bd8:	10bfffd8 	cmpnei	r2,r2,-1
  801bdc:	1000021e 	bne	r2,zero,801be8 <xQueueSemaphoreTake+0xfc>
  801be0:	e0bff917 	ldw	r2,-28(fp)
  801be4:	10001105 	stb	zero,68(r2)
  801be8:	e0bff917 	ldw	r2,-28(fp)
  801bec:	10801143 	ldbu	r2,69(r2)
  801bf0:	10803fcc 	andi	r2,r2,255
  801bf4:	1080201c 	xori	r2,r2,128
  801bf8:	10bfe004 	addi	r2,r2,-128
  801bfc:	10bfffd8 	cmpnei	r2,r2,-1
  801c00:	1000021e 	bne	r2,zero,801c0c <xQueueSemaphoreTake+0x120>
  801c04:	e0bff917 	ldw	r2,-28(fp)
  801c08:	10001145 	stb	zero,69(r2)
  801c0c:	08050480 	call	805048 <vTaskExitCritical>

		/* Update the timeout state to see if it has expired yet. */
		if( xTaskCheckForTimeOut( &xTimeOut, &xTicksToWait ) == pdFALSE )
  801c10:	e0ffff04 	addi	r3,fp,-4
  801c14:	e0bffc04 	addi	r2,fp,-16
  801c18:	180b883a 	mov	r5,r3
  801c1c:	1009883a 	mov	r4,r2
  801c20:	08048980 	call	804898 <xTaskCheckForTimeOut>
  801c24:	10001d1e 	bne	r2,zero,801c9c <xQueueSemaphoreTake+0x1b0>
		{
			/* A block time is specified and not expired.  If the semaphore
			count is 0 then enter the Blocked state to wait for a semaphore to
			become available.  As semaphores are implemented with queues the
			queue being empty is equivalent to the semaphore count being 0. */
			if( prvIsQueueEmpty( pxQueue ) != pdFALSE )
  801c28:	e13ff917 	ldw	r4,-28(fp)
  801c2c:	08024800 	call	802480 <prvIsQueueEmpty>
  801c30:	10001626 	beq	r2,zero,801c8c <xQueueSemaphoreTake+0x1a0>
			{
				traceBLOCKING_ON_QUEUE_RECEIVE( pxQueue );

				#if ( configUSE_MUTEXES == 1 )
				{
					if( pxQueue->uxQueueType == queueQUEUE_IS_MUTEX )
  801c34:	e0bff917 	ldw	r2,-28(fp)
  801c38:	10800017 	ldw	r2,0(r2)
  801c3c:	1000071e 	bne	r2,zero,801c5c <xQueueSemaphoreTake+0x170>
					{
						taskENTER_CRITICAL();
  801c40:	0804ff40 	call	804ff4 <vTaskEnterCritical>
						{
							xInheritanceOccurred = xTaskPriorityInherit( pxQueue->u.xSemaphore.xMutexHolder );
  801c44:	e0bff917 	ldw	r2,-28(fp)
  801c48:	10800217 	ldw	r2,8(r2)
  801c4c:	1009883a 	mov	r4,r2
  801c50:	0804c780 	call	804c78 <xTaskPriorityInherit>
  801c54:	e0bff815 	stw	r2,-32(fp)
						}
						taskEXIT_CRITICAL();
  801c58:	08050480 	call	805048 <vTaskExitCritical>
						mtCOVERAGE_TEST_MARKER();
					}
				}
				#endif

				vTaskPlaceOnEventList( &( pxQueue->xTasksWaitingToReceive ), xTicksToWait );
  801c5c:	e0bff917 	ldw	r2,-28(fp)
  801c60:	10800904 	addi	r2,r2,36
  801c64:	e0ffff17 	ldw	r3,-4(fp)
  801c68:	180b883a 	mov	r5,r3
  801c6c:	1009883a 	mov	r4,r2
  801c70:	08045a00 	call	8045a0 <vTaskPlaceOnEventList>
				prvUnlockQueue( pxQueue );
  801c74:	e13ff917 	ldw	r4,-28(fp)
  801c78:	080238c0 	call	80238c <prvUnlockQueue>
				if( xTaskResumeAll() == pdFALSE )
  801c7c:	08040c00 	call	8040c0 <xTaskResumeAll>
  801c80:	103fa41e 	bne	r2,zero,801b14 <__alt_mem_onchip_memory2_0+0xff781b14>
				{
					portYIELD_WITHIN_API();
  801c84:	003b683a 	trap	0
  801c88:	003fa206 	br	801b14 <__alt_mem_onchip_memory2_0+0xff781b14>
			}
			else
			{
				/* There was no timeout and the semaphore count was not 0, so
				attempt to take the semaphore again. */
				prvUnlockQueue( pxQueue );
  801c8c:	e13ff917 	ldw	r4,-28(fp)
  801c90:	080238c0 	call	80238c <prvUnlockQueue>
				( void ) xTaskResumeAll();
  801c94:	08040c00 	call	8040c0 <xTaskResumeAll>
  801c98:	003f9e06 	br	801b14 <__alt_mem_onchip_memory2_0+0xff781b14>
			}
		}
		else
		{
			/* Timed out. */
			prvUnlockQueue( pxQueue );
  801c9c:	e13ff917 	ldw	r4,-28(fp)
  801ca0:	080238c0 	call	80238c <prvUnlockQueue>
			( void ) xTaskResumeAll();
  801ca4:	08040c00 	call	8040c0 <xTaskResumeAll>

			/* If the semaphore count is 0 exit now as the timeout has
			expired.  Otherwise return to attempt to take the semaphore that is
			known to be available.  As semaphores are implemented by queues the
			queue being empty is equivalent to the semaphore count being 0. */
			if( prvIsQueueEmpty( pxQueue ) != pdFALSE )
  801ca8:	e13ff917 	ldw	r4,-28(fp)
  801cac:	08024800 	call	802480 <prvIsQueueEmpty>
  801cb0:	103f9826 	beq	r2,zero,801b14 <__alt_mem_onchip_memory2_0+0xff781b14>
				#if ( configUSE_MUTEXES == 1 )
				{
					/* xInheritanceOccurred could only have be set if
					pxQueue->uxQueueType == queueQUEUE_IS_MUTEX so no need to
					test the mutex type again to check it is actually a mutex. */
					if( xInheritanceOccurred != pdFALSE )
  801cb4:	e0bff817 	ldw	r2,-32(fp)
  801cb8:	10000a26 	beq	r2,zero,801ce4 <xQueueSemaphoreTake+0x1f8>
					{
						taskENTER_CRITICAL();
  801cbc:	0804ff40 	call	804ff4 <vTaskEnterCritical>
							/* This task blocking on the mutex caused another
							task to inherit this task's priority.  Now this task
							has timed out the priority should be disinherited
							again, but only as low as the next highest priority
							task that is waiting for the same mutex. */
							uxHighestWaitingPriority = prvGetDisinheritPriorityAfterTimeout( pxQueue );
  801cc0:	e13ff917 	ldw	r4,-28(fp)
  801cc4:	08021140 	call	802114 <prvGetDisinheritPriorityAfterTimeout>
  801cc8:	e0bffb15 	stw	r2,-20(fp)
							vTaskPriorityDisinheritAfterTimeout( pxQueue->u.xSemaphore.xMutexHolder, uxHighestWaitingPriority );
  801ccc:	e0bff917 	ldw	r2,-28(fp)
  801cd0:	10800217 	ldw	r2,8(r2)
  801cd4:	e17ffb17 	ldw	r5,-20(fp)
  801cd8:	1009883a 	mov	r4,r2
  801cdc:	0804eb40 	call	804eb4 <vTaskPriorityDisinheritAfterTimeout>
						}
						taskEXIT_CRITICAL();
  801ce0:	08050480 	call	805048 <vTaskExitCritical>
					}
				}
				#endif /* configUSE_MUTEXES */

				traceQUEUE_RECEIVE_FAILED( pxQueue );
				return errQUEUE_EMPTY;
  801ce4:	0005883a 	mov	r2,zero
			{
				mtCOVERAGE_TEST_MARKER();
			}
		}
	} /*lint -restore */
}
  801ce8:	e037883a 	mov	sp,fp
  801cec:	dfc00117 	ldw	ra,4(sp)
  801cf0:	df000017 	ldw	fp,0(sp)
  801cf4:	dec00204 	addi	sp,sp,8
  801cf8:	f800283a 	ret

00801cfc <xQueuePeek>:
/*-----------------------------------------------------------*/

BaseType_t xQueuePeek( QueueHandle_t xQueue, void * const pvBuffer, TickType_t xTicksToWait )
{
  801cfc:	defff504 	addi	sp,sp,-44
  801d00:	dfc00a15 	stw	ra,40(sp)
  801d04:	df000915 	stw	fp,36(sp)
  801d08:	df000904 	addi	fp,sp,36
  801d0c:	e13ffd15 	stw	r4,-12(fp)
  801d10:	e17ffe15 	stw	r5,-8(fp)
  801d14:	e1bfff15 	stw	r6,-4(fp)
BaseType_t xEntryTimeSet = pdFALSE;
  801d18:	e03ff715 	stw	zero,-36(fp)
TimeOut_t xTimeOut;
int8_t *pcOriginalReadPosition;
Queue_t * const pxQueue = xQueue;
  801d1c:	e0bffd17 	ldw	r2,-12(fp)
  801d20:	e0bff815 	stw	r2,-32(fp)
	/*lint -save -e904  This function relaxes the coding standard somewhat to
	allow return statements within the function itself.  This is done in the
	interest of execution time efficiency. */
	for( ;; )
	{
		taskENTER_CRITICAL();
  801d24:	0804ff40 	call	804ff4 <vTaskEnterCritical>
		{
			const UBaseType_t uxMessagesWaiting = pxQueue->uxMessagesWaiting;
  801d28:	e0bff817 	ldw	r2,-32(fp)
  801d2c:	10800e17 	ldw	r2,56(r2)
  801d30:	e0bff915 	stw	r2,-28(fp)

			/* Is there data in the queue now?  To be running the calling task
			must be the highest priority task wanting to access the queue. */
			if( uxMessagesWaiting > ( UBaseType_t ) 0 )
  801d34:	e0bff917 	ldw	r2,-28(fp)
  801d38:	10001526 	beq	r2,zero,801d90 <xQueuePeek+0x94>
			{
				/* Remember the read position so it can be reset after the data
				is read from the queue as this function is only peeking the
				data, not removing it. */
				pcOriginalReadPosition = pxQueue->u.xQueue.pcReadFrom;
  801d3c:	e0bff817 	ldw	r2,-32(fp)
  801d40:	10800317 	ldw	r2,12(r2)
  801d44:	e0bffa15 	stw	r2,-24(fp)

				prvCopyDataFromQueue( pxQueue, pvBuffer );
  801d48:	e17ffe17 	ldw	r5,-8(fp)
  801d4c:	e13ff817 	ldw	r4,-32(fp)
  801d50:	08022f00 	call	8022f0 <prvCopyDataFromQueue>
				traceQUEUE_PEEK( pxQueue );

				/* The data is not being removed, so reset the read pointer. */
				pxQueue->u.xQueue.pcReadFrom = pcOriginalReadPosition;
  801d54:	e0bff817 	ldw	r2,-32(fp)
  801d58:	e0fffa17 	ldw	r3,-24(fp)
  801d5c:	10c00315 	stw	r3,12(r2)

				/* The data is being left in the queue, so see if there are
				any other tasks waiting for the data. */
				if( listLIST_IS_EMPTY( &( pxQueue->xTasksWaitingToReceive ) ) == pdFALSE )
  801d60:	e0bff817 	ldw	r2,-32(fp)
  801d64:	10800917 	ldw	r2,36(r2)
  801d68:	10000626 	beq	r2,zero,801d84 <xQueuePeek+0x88>
				{
					if( xTaskRemoveFromEventList( &( pxQueue->xTasksWaitingToReceive ) ) != pdFALSE )
  801d6c:	e0bff817 	ldw	r2,-32(fp)
  801d70:	10800904 	addi	r2,r2,36
  801d74:	1009883a 	mov	r4,r2
  801d78:	08046540 	call	804654 <xTaskRemoveFromEventList>
  801d7c:	10000126 	beq	r2,zero,801d84 <xQueuePeek+0x88>
					{
						/* The task waiting has a higher priority than this task. */
						queueYIELD_IF_USING_PREEMPTION();
  801d80:	003b683a 	trap	0
				else
				{
					mtCOVERAGE_TEST_MARKER();
				}

				taskEXIT_CRITICAL();
  801d84:	08050480 	call	805048 <vTaskExitCritical>
				return pdPASS;
  801d88:	00800044 	movi	r2,1
  801d8c:	00004206 	br	801e98 <xQueuePeek+0x19c>
			}
			else
			{
				if( xTicksToWait == ( TickType_t ) 0 )
  801d90:	e0bfff17 	ldw	r2,-4(fp)
  801d94:	1000031e 	bne	r2,zero,801da4 <xQueuePeek+0xa8>
				{
					/* The queue was empty and no block time is specified (or
					the block time has expired) so leave now. */
					taskEXIT_CRITICAL();
  801d98:	08050480 	call	805048 <vTaskExitCritical>
					traceQUEUE_PEEK_FAILED( pxQueue );
					return errQUEUE_EMPTY;
  801d9c:	0005883a 	mov	r2,zero
  801da0:	00003d06 	br	801e98 <xQueuePeek+0x19c>
				}
				else if( xEntryTimeSet == pdFALSE )
  801da4:	e0bff717 	ldw	r2,-36(fp)
  801da8:	1000051e 	bne	r2,zero,801dc0 <xQueuePeek+0xc4>
				{
					/* The queue was empty and a block time was specified so
					configure the timeout structure ready to enter the blocked
					state. */
					vTaskInternalSetTimeOutState( &xTimeOut );
  801dac:	e0bffb04 	addi	r2,fp,-20
  801db0:	1009883a 	mov	r4,r2
  801db4:	080485c0 	call	80485c <vTaskInternalSetTimeOutState>
					xEntryTimeSet = pdTRUE;
  801db8:	00800044 	movi	r2,1
  801dbc:	e0bff715 	stw	r2,-36(fp)
					/* Entry time was already set. */
					mtCOVERAGE_TEST_MARKER();
				}
			}
		}
		taskEXIT_CRITICAL();
  801dc0:	08050480 	call	805048 <vTaskExitCritical>

		/* Interrupts and other tasks can send to and receive from the queue
		now the critical section has been exited. */

		vTaskSuspendAll();
  801dc4:	08040940 	call	804094 <vTaskSuspendAll>
		prvLockQueue( pxQueue );
  801dc8:	0804ff40 	call	804ff4 <vTaskEnterCritical>
  801dcc:	e0bff817 	ldw	r2,-32(fp)
  801dd0:	10801103 	ldbu	r2,68(r2)
  801dd4:	10803fcc 	andi	r2,r2,255
  801dd8:	1080201c 	xori	r2,r2,128
  801ddc:	10bfe004 	addi	r2,r2,-128
  801de0:	10bfffd8 	cmpnei	r2,r2,-1
  801de4:	1000021e 	bne	r2,zero,801df0 <xQueuePeek+0xf4>
  801de8:	e0bff817 	ldw	r2,-32(fp)
  801dec:	10001105 	stb	zero,68(r2)
  801df0:	e0bff817 	ldw	r2,-32(fp)
  801df4:	10801143 	ldbu	r2,69(r2)
  801df8:	10803fcc 	andi	r2,r2,255
  801dfc:	1080201c 	xori	r2,r2,128
  801e00:	10bfe004 	addi	r2,r2,-128
  801e04:	10bfffd8 	cmpnei	r2,r2,-1
  801e08:	1000021e 	bne	r2,zero,801e14 <xQueuePeek+0x118>
  801e0c:	e0bff817 	ldw	r2,-32(fp)
  801e10:	10001145 	stb	zero,69(r2)
  801e14:	08050480 	call	805048 <vTaskExitCritical>

		/* Update the timeout state to see if it has expired yet. */
		if( xTaskCheckForTimeOut( &xTimeOut, &xTicksToWait ) == pdFALSE )
  801e18:	e0ffff04 	addi	r3,fp,-4
  801e1c:	e0bffb04 	addi	r2,fp,-20
  801e20:	180b883a 	mov	r5,r3
  801e24:	1009883a 	mov	r4,r2
  801e28:	08048980 	call	804898 <xTaskCheckForTimeOut>
  801e2c:	1000131e 	bne	r2,zero,801e7c <xQueuePeek+0x180>
		{
			/* Timeout has not expired yet, check to see if there is data in the
			queue now, and if not enter the Blocked state to wait for data. */
			if( prvIsQueueEmpty( pxQueue ) != pdFALSE )
  801e30:	e13ff817 	ldw	r4,-32(fp)
  801e34:	08024800 	call	802480 <prvIsQueueEmpty>
  801e38:	10000c26 	beq	r2,zero,801e6c <xQueuePeek+0x170>
			{
				traceBLOCKING_ON_QUEUE_PEEK( pxQueue );
				vTaskPlaceOnEventList( &( pxQueue->xTasksWaitingToReceive ), xTicksToWait );
  801e3c:	e0bff817 	ldw	r2,-32(fp)
  801e40:	10800904 	addi	r2,r2,36
  801e44:	e0ffff17 	ldw	r3,-4(fp)
  801e48:	180b883a 	mov	r5,r3
  801e4c:	1009883a 	mov	r4,r2
  801e50:	08045a00 	call	8045a0 <vTaskPlaceOnEventList>
				prvUnlockQueue( pxQueue );
  801e54:	e13ff817 	ldw	r4,-32(fp)
  801e58:	080238c0 	call	80238c <prvUnlockQueue>
				if( xTaskResumeAll() == pdFALSE )
  801e5c:	08040c00 	call	8040c0 <xTaskResumeAll>
  801e60:	103fb01e 	bne	r2,zero,801d24 <__alt_mem_onchip_memory2_0+0xff781d24>
				{
					portYIELD_WITHIN_API();
  801e64:	003b683a 	trap	0
  801e68:	003fae06 	br	801d24 <__alt_mem_onchip_memory2_0+0xff781d24>
			}
			else
			{
				/* There is data in the queue now, so don't enter the blocked
				state, instead return to try and obtain the data. */
				prvUnlockQueue( pxQueue );
  801e6c:	e13ff817 	ldw	r4,-32(fp)
  801e70:	080238c0 	call	80238c <prvUnlockQueue>
				( void ) xTaskResumeAll();
  801e74:	08040c00 	call	8040c0 <xTaskResumeAll>
  801e78:	003faa06 	br	801d24 <__alt_mem_onchip_memory2_0+0xff781d24>
		}
		else
		{
			/* The timeout has expired.  If there is still no data in the queue
			exit, otherwise go back and try to read the data again. */
			prvUnlockQueue( pxQueue );
  801e7c:	e13ff817 	ldw	r4,-32(fp)
  801e80:	080238c0 	call	80238c <prvUnlockQueue>
			( void ) xTaskResumeAll();
  801e84:	08040c00 	call	8040c0 <xTaskResumeAll>

			if( prvIsQueueEmpty( pxQueue ) != pdFALSE )
  801e88:	e13ff817 	ldw	r4,-32(fp)
  801e8c:	08024800 	call	802480 <prvIsQueueEmpty>
  801e90:	103fa426 	beq	r2,zero,801d24 <__alt_mem_onchip_memory2_0+0xff781d24>
			{
				traceQUEUE_PEEK_FAILED( pxQueue );
				return errQUEUE_EMPTY;
  801e94:	0005883a 	mov	r2,zero
			{
				mtCOVERAGE_TEST_MARKER();
			}
		}
	} /*lint -restore */
}
  801e98:	e037883a 	mov	sp,fp
  801e9c:	dfc00117 	ldw	ra,4(sp)
  801ea0:	df000017 	ldw	fp,0(sp)
  801ea4:	dec00204 	addi	sp,sp,8
  801ea8:	f800283a 	ret

00801eac <xQueueReceiveFromISR>:
/*-----------------------------------------------------------*/

BaseType_t xQueueReceiveFromISR( QueueHandle_t xQueue, void * const pvBuffer, BaseType_t * const pxHigherPriorityTaskWoken )
{
  801eac:	defff604 	addi	sp,sp,-40
  801eb0:	dfc00915 	stw	ra,36(sp)
  801eb4:	df000815 	stw	fp,32(sp)
  801eb8:	df000804 	addi	fp,sp,32
  801ebc:	e13ffd15 	stw	r4,-12(fp)
  801ec0:	e17ffe15 	stw	r5,-8(fp)
  801ec4:	e1bfff15 	stw	r6,-4(fp)
BaseType_t xReturn;
UBaseType_t uxSavedInterruptStatus;
Queue_t * const pxQueue = xQueue;
  801ec8:	e0bffd17 	ldw	r2,-12(fp)
  801ecc:	e0bff915 	stw	r2,-28(fp)
	safe API to ensure interrupt entry is as fast and as simple as possible.
	More information (albeit Cortex-M specific) is provided on the following
	link: http://www.freertos.org/RTOS-Cortex-M3-M4.html */
	portASSERT_IF_INTERRUPT_PRIORITY_INVALID();

	uxSavedInterruptStatus = portSET_INTERRUPT_MASK_FROM_ISR();
  801ed0:	e03ffa15 	stw	zero,-24(fp)
	{
		const UBaseType_t uxMessagesWaiting = pxQueue->uxMessagesWaiting;
  801ed4:	e0bff917 	ldw	r2,-28(fp)
  801ed8:	10800e17 	ldw	r2,56(r2)
  801edc:	e0bffb15 	stw	r2,-20(fp)

		/* Cannot block in an ISR, so check there is data available. */
		if( uxMessagesWaiting > ( UBaseType_t ) 0 )
  801ee0:	e0bffb17 	ldw	r2,-20(fp)
  801ee4:	10002326 	beq	r2,zero,801f74 <xQueueReceiveFromISR+0xc8>
		{
			const int8_t cRxLock = pxQueue->cRxLock;
  801ee8:	e0bff917 	ldw	r2,-28(fp)
  801eec:	10801103 	ldbu	r2,68(r2)
  801ef0:	e0bffc05 	stb	r2,-16(fp)

			traceQUEUE_RECEIVE_FROM_ISR( pxQueue );

			prvCopyDataFromQueue( pxQueue, pvBuffer );
  801ef4:	e17ffe17 	ldw	r5,-8(fp)
  801ef8:	e13ff917 	ldw	r4,-28(fp)
  801efc:	08022f00 	call	8022f0 <prvCopyDataFromQueue>
			pxQueue->uxMessagesWaiting = uxMessagesWaiting - ( UBaseType_t ) 1;
  801f00:	e0bffb17 	ldw	r2,-20(fp)
  801f04:	10ffffc4 	addi	r3,r2,-1
  801f08:	e0bff917 	ldw	r2,-28(fp)
  801f0c:	10c00e15 	stw	r3,56(r2)

			/* If the queue is locked the event list will not be modified.
			Instead update the lock count so the task that unlocks the queue
			will know that an ISR has removed data while the queue was
			locked. */
			if( cRxLock == queueUNLOCKED )
  801f10:	e0bffc07 	ldb	r2,-16(fp)
  801f14:	10bfffd8 	cmpnei	r2,r2,-1
  801f18:	10000e1e 	bne	r2,zero,801f54 <xQueueReceiveFromISR+0xa8>
			{
				if( listLIST_IS_EMPTY( &( pxQueue->xTasksWaitingToSend ) ) == pdFALSE )
  801f1c:	e0bff917 	ldw	r2,-28(fp)
  801f20:	10800417 	ldw	r2,16(r2)
  801f24:	10001026 	beq	r2,zero,801f68 <xQueueReceiveFromISR+0xbc>
				{
					if( xTaskRemoveFromEventList( &( pxQueue->xTasksWaitingToSend ) ) != pdFALSE )
  801f28:	e0bff917 	ldw	r2,-28(fp)
  801f2c:	10800404 	addi	r2,r2,16
  801f30:	1009883a 	mov	r4,r2
  801f34:	08046540 	call	804654 <xTaskRemoveFromEventList>
  801f38:	10000b26 	beq	r2,zero,801f68 <xQueueReceiveFromISR+0xbc>
					{
						/* The task waiting has a higher priority than us so
						force a context switch. */
						if( pxHigherPriorityTaskWoken != NULL )
  801f3c:	e0bfff17 	ldw	r2,-4(fp)
  801f40:	10000926 	beq	r2,zero,801f68 <xQueueReceiveFromISR+0xbc>
						{
							*pxHigherPriorityTaskWoken = pdTRUE;
  801f44:	e0bfff17 	ldw	r2,-4(fp)
  801f48:	00c00044 	movi	r3,1
  801f4c:	10c00015 	stw	r3,0(r2)
  801f50:	00000506 	br	801f68 <xQueueReceiveFromISR+0xbc>
			}
			else
			{
				/* Increment the lock count so the task that unlocks the queue
				knows that data was removed while it was locked. */
				pxQueue->cRxLock = ( int8_t ) ( cRxLock + 1 );
  801f54:	e0bffc03 	ldbu	r2,-16(fp)
  801f58:	10800044 	addi	r2,r2,1
  801f5c:	1007883a 	mov	r3,r2
  801f60:	e0bff917 	ldw	r2,-28(fp)
  801f64:	10c01105 	stb	r3,68(r2)
			}

			xReturn = pdPASS;
  801f68:	00800044 	movi	r2,1
  801f6c:	e0bff815 	stw	r2,-32(fp)
  801f70:	00000106 	br	801f78 <xQueueReceiveFromISR+0xcc>
		}
		else
		{
			xReturn = pdFAIL;
  801f74:	e03ff815 	stw	zero,-32(fp)
			traceQUEUE_RECEIVE_FROM_ISR_FAILED( pxQueue );
		}
	}
	portCLEAR_INTERRUPT_MASK_FROM_ISR( uxSavedInterruptStatus );

	return xReturn;
  801f78:	e0bff817 	ldw	r2,-32(fp)
}
  801f7c:	e037883a 	mov	sp,fp
  801f80:	dfc00117 	ldw	ra,4(sp)
  801f84:	df000017 	ldw	fp,0(sp)
  801f88:	dec00204 	addi	sp,sp,8
  801f8c:	f800283a 	ret

00801f90 <xQueuePeekFromISR>:
/*-----------------------------------------------------------*/

BaseType_t xQueuePeekFromISR( QueueHandle_t xQueue,  void * const pvBuffer )
{
  801f90:	defff804 	addi	sp,sp,-32
  801f94:	dfc00715 	stw	ra,28(sp)
  801f98:	df000615 	stw	fp,24(sp)
  801f9c:	df000604 	addi	fp,sp,24
  801fa0:	e13ffe15 	stw	r4,-8(fp)
  801fa4:	e17fff15 	stw	r5,-4(fp)
BaseType_t xReturn;
UBaseType_t uxSavedInterruptStatus;
int8_t *pcOriginalReadPosition;
Queue_t * const pxQueue = xQueue;
  801fa8:	e0bffe17 	ldw	r2,-8(fp)
  801fac:	e0bffb15 	stw	r2,-20(fp)
	safe API to ensure interrupt entry is as fast and as simple as possible.
	More information (albeit Cortex-M specific) is provided on the following
	link: http://www.freertos.org/RTOS-Cortex-M3-M4.html */
	portASSERT_IF_INTERRUPT_PRIORITY_INVALID();

	uxSavedInterruptStatus = portSET_INTERRUPT_MASK_FROM_ISR();
  801fb0:	e03ffc15 	stw	zero,-16(fp)
	{
		/* Cannot block in an ISR, so check there is data available. */
		if( pxQueue->uxMessagesWaiting > ( UBaseType_t ) 0 )
  801fb4:	e0bffb17 	ldw	r2,-20(fp)
  801fb8:	10800e17 	ldw	r2,56(r2)
  801fbc:	10000c26 	beq	r2,zero,801ff0 <xQueuePeekFromISR+0x60>
		{
			traceQUEUE_PEEK_FROM_ISR( pxQueue );

			/* Remember the read position so it can be reset as nothing is
			actually being removed from the queue. */
			pcOriginalReadPosition = pxQueue->u.xQueue.pcReadFrom;
  801fc0:	e0bffb17 	ldw	r2,-20(fp)
  801fc4:	10800317 	ldw	r2,12(r2)
  801fc8:	e0bffd15 	stw	r2,-12(fp)
			prvCopyDataFromQueue( pxQueue, pvBuffer );
  801fcc:	e17fff17 	ldw	r5,-4(fp)
  801fd0:	e13ffb17 	ldw	r4,-20(fp)
  801fd4:	08022f00 	call	8022f0 <prvCopyDataFromQueue>
			pxQueue->u.xQueue.pcReadFrom = pcOriginalReadPosition;
  801fd8:	e0bffb17 	ldw	r2,-20(fp)
  801fdc:	e0fffd17 	ldw	r3,-12(fp)
  801fe0:	10c00315 	stw	r3,12(r2)

			xReturn = pdPASS;
  801fe4:	00800044 	movi	r2,1
  801fe8:	e0bffa15 	stw	r2,-24(fp)
  801fec:	00000106 	br	801ff4 <xQueuePeekFromISR+0x64>
		}
		else
		{
			xReturn = pdFAIL;
  801ff0:	e03ffa15 	stw	zero,-24(fp)
			traceQUEUE_PEEK_FROM_ISR_FAILED( pxQueue );
		}
	}
	portCLEAR_INTERRUPT_MASK_FROM_ISR( uxSavedInterruptStatus );

	return xReturn;
  801ff4:	e0bffa17 	ldw	r2,-24(fp)
}
  801ff8:	e037883a 	mov	sp,fp
  801ffc:	dfc00117 	ldw	ra,4(sp)
  802000:	df000017 	ldw	fp,0(sp)
  802004:	dec00204 	addi	sp,sp,8
  802008:	f800283a 	ret

0080200c <uxQueueMessagesWaiting>:
/*-----------------------------------------------------------*/

UBaseType_t uxQueueMessagesWaiting( const QueueHandle_t xQueue )
{
  80200c:	defffc04 	addi	sp,sp,-16
  802010:	dfc00315 	stw	ra,12(sp)
  802014:	df000215 	stw	fp,8(sp)
  802018:	df000204 	addi	fp,sp,8
  80201c:	e13fff15 	stw	r4,-4(fp)
UBaseType_t uxReturn;

	configASSERT( xQueue );

	taskENTER_CRITICAL();
  802020:	0804ff40 	call	804ff4 <vTaskEnterCritical>
	{
		uxReturn = ( ( Queue_t * ) xQueue )->uxMessagesWaiting;
  802024:	e0bfff17 	ldw	r2,-4(fp)
  802028:	10800e17 	ldw	r2,56(r2)
  80202c:	e0bffe15 	stw	r2,-8(fp)
	}
	taskEXIT_CRITICAL();
  802030:	08050480 	call	805048 <vTaskExitCritical>

	return uxReturn;
  802034:	e0bffe17 	ldw	r2,-8(fp)
} /*lint !e818 Pointer cannot be declared const as xQueue is a typedef not pointer. */
  802038:	e037883a 	mov	sp,fp
  80203c:	dfc00117 	ldw	ra,4(sp)
  802040:	df000017 	ldw	fp,0(sp)
  802044:	dec00204 	addi	sp,sp,8
  802048:	f800283a 	ret

0080204c <uxQueueSpacesAvailable>:
/*-----------------------------------------------------------*/

UBaseType_t uxQueueSpacesAvailable( const QueueHandle_t xQueue )
{
  80204c:	defffb04 	addi	sp,sp,-20
  802050:	dfc00415 	stw	ra,16(sp)
  802054:	df000315 	stw	fp,12(sp)
  802058:	df000304 	addi	fp,sp,12
  80205c:	e13fff15 	stw	r4,-4(fp)
UBaseType_t uxReturn;
Queue_t * const pxQueue = xQueue;
  802060:	e0bfff17 	ldw	r2,-4(fp)
  802064:	e0bffd15 	stw	r2,-12(fp)

	configASSERT( pxQueue );

	taskENTER_CRITICAL();
  802068:	0804ff40 	call	804ff4 <vTaskEnterCritical>
	{
		uxReturn = pxQueue->uxLength - pxQueue->uxMessagesWaiting;
  80206c:	e0bffd17 	ldw	r2,-12(fp)
  802070:	10c00f17 	ldw	r3,60(r2)
  802074:	e0bffd17 	ldw	r2,-12(fp)
  802078:	10800e17 	ldw	r2,56(r2)
  80207c:	1885c83a 	sub	r2,r3,r2
  802080:	e0bffe15 	stw	r2,-8(fp)
	}
	taskEXIT_CRITICAL();
  802084:	08050480 	call	805048 <vTaskExitCritical>

	return uxReturn;
  802088:	e0bffe17 	ldw	r2,-8(fp)
} /*lint !e818 Pointer cannot be declared const as xQueue is a typedef not pointer. */
  80208c:	e037883a 	mov	sp,fp
  802090:	dfc00117 	ldw	ra,4(sp)
  802094:	df000017 	ldw	fp,0(sp)
  802098:	dec00204 	addi	sp,sp,8
  80209c:	f800283a 	ret

008020a0 <uxQueueMessagesWaitingFromISR>:
/*-----------------------------------------------------------*/

UBaseType_t uxQueueMessagesWaitingFromISR( const QueueHandle_t xQueue )
{
  8020a0:	defffc04 	addi	sp,sp,-16
  8020a4:	df000315 	stw	fp,12(sp)
  8020a8:	df000304 	addi	fp,sp,12
  8020ac:	e13fff15 	stw	r4,-4(fp)
UBaseType_t uxReturn;
Queue_t * const pxQueue = xQueue;
  8020b0:	e0bfff17 	ldw	r2,-4(fp)
  8020b4:	e0bffd15 	stw	r2,-12(fp)

	configASSERT( pxQueue );
	uxReturn = pxQueue->uxMessagesWaiting;
  8020b8:	e0bffd17 	ldw	r2,-12(fp)
  8020bc:	10800e17 	ldw	r2,56(r2)
  8020c0:	e0bffe15 	stw	r2,-8(fp)

	return uxReturn;
  8020c4:	e0bffe17 	ldw	r2,-8(fp)
} /*lint !e818 Pointer cannot be declared const as xQueue is a typedef not pointer. */
  8020c8:	e037883a 	mov	sp,fp
  8020cc:	df000017 	ldw	fp,0(sp)
  8020d0:	dec00104 	addi	sp,sp,4
  8020d4:	f800283a 	ret

008020d8 <vQueueDelete>:
/*-----------------------------------------------------------*/

void vQueueDelete( QueueHandle_t xQueue )
{
  8020d8:	defffc04 	addi	sp,sp,-16
  8020dc:	dfc00315 	stw	ra,12(sp)
  8020e0:	df000215 	stw	fp,8(sp)
  8020e4:	df000204 	addi	fp,sp,8
  8020e8:	e13fff15 	stw	r4,-4(fp)
Queue_t * const pxQueue = xQueue;
  8020ec:	e0bfff17 	ldw	r2,-4(fp)
  8020f0:	e0bffe15 	stw	r2,-8(fp)

	#if( ( configSUPPORT_DYNAMIC_ALLOCATION == 1 ) && ( configSUPPORT_STATIC_ALLOCATION == 0 ) )
	{
		/* The queue can only have been allocated dynamically - free it
		again. */
		vPortFree( pxQueue );
  8020f4:	e13ffe17 	ldw	r4,-8(fp)
  8020f8:	08010dc0 	call	8010dc <vPortFree>
		/* The queue must have been statically allocated, so is not going to be
		deleted.  Avoid compiler warnings about the unused parameter. */
		( void ) pxQueue;
	}
	#endif /* configSUPPORT_DYNAMIC_ALLOCATION */
}
  8020fc:	0001883a 	nop
  802100:	e037883a 	mov	sp,fp
  802104:	dfc00117 	ldw	ra,4(sp)
  802108:	df000017 	ldw	fp,0(sp)
  80210c:	dec00204 	addi	sp,sp,8
  802110:	f800283a 	ret

00802114 <prvGetDisinheritPriorityAfterTimeout>:
/*-----------------------------------------------------------*/

#if( configUSE_MUTEXES == 1 )

	static UBaseType_t prvGetDisinheritPriorityAfterTimeout( const Queue_t * const pxQueue )
	{
  802114:	defffd04 	addi	sp,sp,-12
  802118:	df000215 	stw	fp,8(sp)
  80211c:	df000204 	addi	fp,sp,8
  802120:	e13fff15 	stw	r4,-4(fp)
		priority, but the waiting task times out, then the holder should
		disinherit the priority - but only down to the highest priority of any
		other tasks that are waiting for the same mutex.  For this purpose,
		return the priority of the highest priority task that is waiting for the
		mutex. */
		if( listCURRENT_LIST_LENGTH( &( pxQueue->xTasksWaitingToReceive ) ) > 0U )
  802124:	e0bfff17 	ldw	r2,-4(fp)
  802128:	10800917 	ldw	r2,36(r2)
  80212c:	10000726 	beq	r2,zero,80214c <prvGetDisinheritPriorityAfterTimeout+0x38>
		{
			uxHighestPriorityOfWaitingTasks = ( UBaseType_t ) configMAX_PRIORITIES - ( UBaseType_t ) listGET_ITEM_VALUE_OF_HEAD_ENTRY( &( pxQueue->xTasksWaitingToReceive ) );
  802130:	e0bfff17 	ldw	r2,-4(fp)
  802134:	10800c17 	ldw	r2,48(r2)
  802138:	10800017 	ldw	r2,0(r2)
  80213c:	00c00144 	movi	r3,5
  802140:	1885c83a 	sub	r2,r3,r2
  802144:	e0bffe15 	stw	r2,-8(fp)
  802148:	00000106 	br	802150 <prvGetDisinheritPriorityAfterTimeout+0x3c>
		}
		else
		{
			uxHighestPriorityOfWaitingTasks = tskIDLE_PRIORITY;
  80214c:	e03ffe15 	stw	zero,-8(fp)
		}

		return uxHighestPriorityOfWaitingTasks;
  802150:	e0bffe17 	ldw	r2,-8(fp)
	}
  802154:	e037883a 	mov	sp,fp
  802158:	df000017 	ldw	fp,0(sp)
  80215c:	dec00104 	addi	sp,sp,4
  802160:	f800283a 	ret

00802164 <prvCopyDataToQueue>:

#endif /* configUSE_MUTEXES */
/*-----------------------------------------------------------*/

static BaseType_t prvCopyDataToQueue( Queue_t * const pxQueue, const void *pvItemToQueue, const BaseType_t xPosition )
{
  802164:	defff904 	addi	sp,sp,-28
  802168:	dfc00615 	stw	ra,24(sp)
  80216c:	df000515 	stw	fp,20(sp)
  802170:	df000504 	addi	fp,sp,20
  802174:	e13ffd15 	stw	r4,-12(fp)
  802178:	e17ffe15 	stw	r5,-8(fp)
  80217c:	e1bfff15 	stw	r6,-4(fp)
BaseType_t xReturn = pdFALSE;
  802180:	e03ffb15 	stw	zero,-20(fp)
UBaseType_t uxMessagesWaiting;

	/* This function is called from a critical section. */

	uxMessagesWaiting = pxQueue->uxMessagesWaiting;
  802184:	e0bffd17 	ldw	r2,-12(fp)
  802188:	10800e17 	ldw	r2,56(r2)
  80218c:	e0bffc15 	stw	r2,-16(fp)

	if( pxQueue->uxItemSize == ( UBaseType_t ) 0 )
  802190:	e0bffd17 	ldw	r2,-12(fp)
  802194:	10801017 	ldw	r2,64(r2)
  802198:	10000b1e 	bne	r2,zero,8021c8 <prvCopyDataToQueue+0x64>
	{
		#if ( configUSE_MUTEXES == 1 )
		{
			if( pxQueue->uxQueueType == queueQUEUE_IS_MUTEX )
  80219c:	e0bffd17 	ldw	r2,-12(fp)
  8021a0:	10800017 	ldw	r2,0(r2)
  8021a4:	1000481e 	bne	r2,zero,8022c8 <prvCopyDataToQueue+0x164>
			{
				/* The mutex is no longer being held. */
				xReturn = xTaskPriorityDisinherit( pxQueue->u.xSemaphore.xMutexHolder );
  8021a8:	e0bffd17 	ldw	r2,-12(fp)
  8021ac:	10800217 	ldw	r2,8(r2)
  8021b0:	1009883a 	mov	r4,r2
  8021b4:	0804db80 	call	804db8 <xTaskPriorityDisinherit>
  8021b8:	e0bffb15 	stw	r2,-20(fp)
				pxQueue->u.xSemaphore.xMutexHolder = NULL;
  8021bc:	e0bffd17 	ldw	r2,-12(fp)
  8021c0:	10000215 	stw	zero,8(r2)
  8021c4:	00004006 	br	8022c8 <prvCopyDataToQueue+0x164>
				mtCOVERAGE_TEST_MARKER();
			}
		}
		#endif /* configUSE_MUTEXES */
	}
	else if( xPosition == queueSEND_TO_BACK )
  8021c8:	e0bfff17 	ldw	r2,-4(fp)
  8021cc:	1000191e 	bne	r2,zero,802234 <prvCopyDataToQueue+0xd0>
	{
		( void ) memcpy( ( void * ) pxQueue->pcWriteTo, pvItemToQueue, ( size_t ) pxQueue->uxItemSize ); /*lint !e961 !e418 !e9087 MISRA exception as the casts are only redundant for some ports, plus previous logic ensures a null pointer can only be passed to memcpy() if the copy size is 0.  Cast to void required by function signature and safe as no alignment requirement and copy length specified in bytes. */
  8021d0:	e0bffd17 	ldw	r2,-12(fp)
  8021d4:	10c00117 	ldw	r3,4(r2)
  8021d8:	e0bffd17 	ldw	r2,-12(fp)
  8021dc:	10801017 	ldw	r2,64(r2)
  8021e0:	100d883a 	mov	r6,r2
  8021e4:	e17ffe17 	ldw	r5,-8(fp)
  8021e8:	1809883a 	mov	r4,r3
  8021ec:	08066200 	call	806620 <memcpy>
		pxQueue->pcWriteTo += pxQueue->uxItemSize; /*lint !e9016 Pointer arithmetic on char types ok, especially in this use case where it is the clearest way of conveying intent. */
  8021f0:	e0bffd17 	ldw	r2,-12(fp)
  8021f4:	10c00117 	ldw	r3,4(r2)
  8021f8:	e0bffd17 	ldw	r2,-12(fp)
  8021fc:	10801017 	ldw	r2,64(r2)
  802200:	1887883a 	add	r3,r3,r2
  802204:	e0bffd17 	ldw	r2,-12(fp)
  802208:	10c00115 	stw	r3,4(r2)
		if( pxQueue->pcWriteTo >= pxQueue->u.xQueue.pcTail ) /*lint !e946 MISRA exception justified as comparison of pointers is the cleanest solution. */
  80220c:	e0bffd17 	ldw	r2,-12(fp)
  802210:	10c00117 	ldw	r3,4(r2)
  802214:	e0bffd17 	ldw	r2,-12(fp)
  802218:	10800217 	ldw	r2,8(r2)
  80221c:	18802a36 	bltu	r3,r2,8022c8 <prvCopyDataToQueue+0x164>
		{
			pxQueue->pcWriteTo = pxQueue->pcHead;
  802220:	e0bffd17 	ldw	r2,-12(fp)
  802224:	10c00017 	ldw	r3,0(r2)
  802228:	e0bffd17 	ldw	r2,-12(fp)
  80222c:	10c00115 	stw	r3,4(r2)
  802230:	00002506 	br	8022c8 <prvCopyDataToQueue+0x164>
			mtCOVERAGE_TEST_MARKER();
		}
	}
	else
	{
		( void ) memcpy( ( void * ) pxQueue->u.xQueue.pcReadFrom, pvItemToQueue, ( size_t ) pxQueue->uxItemSize ); /*lint !e961 !e9087 !e418 MISRA exception as the casts are only redundant for some ports.  Cast to void required by function signature and safe as no alignment requirement and copy length specified in bytes.  Assert checks null pointer only used when length is 0. */
  802234:	e0bffd17 	ldw	r2,-12(fp)
  802238:	10c00317 	ldw	r3,12(r2)
  80223c:	e0bffd17 	ldw	r2,-12(fp)
  802240:	10801017 	ldw	r2,64(r2)
  802244:	100d883a 	mov	r6,r2
  802248:	e17ffe17 	ldw	r5,-8(fp)
  80224c:	1809883a 	mov	r4,r3
  802250:	08066200 	call	806620 <memcpy>
		pxQueue->u.xQueue.pcReadFrom -= pxQueue->uxItemSize;
  802254:	e0bffd17 	ldw	r2,-12(fp)
  802258:	10c00317 	ldw	r3,12(r2)
  80225c:	e0bffd17 	ldw	r2,-12(fp)
  802260:	10801017 	ldw	r2,64(r2)
  802264:	0085c83a 	sub	r2,zero,r2
  802268:	1887883a 	add	r3,r3,r2
  80226c:	e0bffd17 	ldw	r2,-12(fp)
  802270:	10c00315 	stw	r3,12(r2)
		if( pxQueue->u.xQueue.pcReadFrom < pxQueue->pcHead ) /*lint !e946 MISRA exception justified as comparison of pointers is the cleanest solution. */
  802274:	e0bffd17 	ldw	r2,-12(fp)
  802278:	10c00317 	ldw	r3,12(r2)
  80227c:	e0bffd17 	ldw	r2,-12(fp)
  802280:	10800017 	ldw	r2,0(r2)
  802284:	1880082e 	bgeu	r3,r2,8022a8 <prvCopyDataToQueue+0x144>
		{
			pxQueue->u.xQueue.pcReadFrom = ( pxQueue->u.xQueue.pcTail - pxQueue->uxItemSize );
  802288:	e0bffd17 	ldw	r2,-12(fp)
  80228c:	10c00217 	ldw	r3,8(r2)
  802290:	e0bffd17 	ldw	r2,-12(fp)
  802294:	10801017 	ldw	r2,64(r2)
  802298:	0085c83a 	sub	r2,zero,r2
  80229c:	1887883a 	add	r3,r3,r2
  8022a0:	e0bffd17 	ldw	r2,-12(fp)
  8022a4:	10c00315 	stw	r3,12(r2)
		else
		{
			mtCOVERAGE_TEST_MARKER();
		}

		if( xPosition == queueOVERWRITE )
  8022a8:	e0bfff17 	ldw	r2,-4(fp)
  8022ac:	10800098 	cmpnei	r2,r2,2
  8022b0:	1000051e 	bne	r2,zero,8022c8 <prvCopyDataToQueue+0x164>
		{
			if( uxMessagesWaiting > ( UBaseType_t ) 0 )
  8022b4:	e0bffc17 	ldw	r2,-16(fp)
  8022b8:	10000326 	beq	r2,zero,8022c8 <prvCopyDataToQueue+0x164>
			{
				/* An item is not being added but overwritten, so subtract
				one from the recorded number of items in the queue so when
				one is added again below the number of recorded items remains
				correct. */
				--uxMessagesWaiting;
  8022bc:	e0bffc17 	ldw	r2,-16(fp)
  8022c0:	10bfffc4 	addi	r2,r2,-1
  8022c4:	e0bffc15 	stw	r2,-16(fp)
		{
			mtCOVERAGE_TEST_MARKER();
		}
	}

	pxQueue->uxMessagesWaiting = uxMessagesWaiting + ( UBaseType_t ) 1;
  8022c8:	e0bffc17 	ldw	r2,-16(fp)
  8022cc:	10c00044 	addi	r3,r2,1
  8022d0:	e0bffd17 	ldw	r2,-12(fp)
  8022d4:	10c00e15 	stw	r3,56(r2)

	return xReturn;
  8022d8:	e0bffb17 	ldw	r2,-20(fp)
}
  8022dc:	e037883a 	mov	sp,fp
  8022e0:	dfc00117 	ldw	ra,4(sp)
  8022e4:	df000017 	ldw	fp,0(sp)
  8022e8:	dec00204 	addi	sp,sp,8
  8022ec:	f800283a 	ret

008022f0 <prvCopyDataFromQueue>:
/*-----------------------------------------------------------*/

static void prvCopyDataFromQueue( Queue_t * const pxQueue, void * const pvBuffer )
{
  8022f0:	defffc04 	addi	sp,sp,-16
  8022f4:	dfc00315 	stw	ra,12(sp)
  8022f8:	df000215 	stw	fp,8(sp)
  8022fc:	df000204 	addi	fp,sp,8
  802300:	e13ffe15 	stw	r4,-8(fp)
  802304:	e17fff15 	stw	r5,-4(fp)
	if( pxQueue->uxItemSize != ( UBaseType_t ) 0 )
  802308:	e0bffe17 	ldw	r2,-8(fp)
  80230c:	10801017 	ldw	r2,64(r2)
  802310:	10001826 	beq	r2,zero,802374 <prvCopyDataFromQueue+0x84>
	{
		pxQueue->u.xQueue.pcReadFrom += pxQueue->uxItemSize; /*lint !e9016 Pointer arithmetic on char types ok, especially in this use case where it is the clearest way of conveying intent. */
  802314:	e0bffe17 	ldw	r2,-8(fp)
  802318:	10c00317 	ldw	r3,12(r2)
  80231c:	e0bffe17 	ldw	r2,-8(fp)
  802320:	10801017 	ldw	r2,64(r2)
  802324:	1887883a 	add	r3,r3,r2
  802328:	e0bffe17 	ldw	r2,-8(fp)
  80232c:	10c00315 	stw	r3,12(r2)
		if( pxQueue->u.xQueue.pcReadFrom >= pxQueue->u.xQueue.pcTail ) /*lint !e946 MISRA exception justified as use of the relational operator is the cleanest solutions. */
  802330:	e0bffe17 	ldw	r2,-8(fp)
  802334:	10c00317 	ldw	r3,12(r2)
  802338:	e0bffe17 	ldw	r2,-8(fp)
  80233c:	10800217 	ldw	r2,8(r2)
  802340:	18800436 	bltu	r3,r2,802354 <prvCopyDataFromQueue+0x64>
		{
			pxQueue->u.xQueue.pcReadFrom = pxQueue->pcHead;
  802344:	e0bffe17 	ldw	r2,-8(fp)
  802348:	10c00017 	ldw	r3,0(r2)
  80234c:	e0bffe17 	ldw	r2,-8(fp)
  802350:	10c00315 	stw	r3,12(r2)
		}
		else
		{
			mtCOVERAGE_TEST_MARKER();
		}
		( void ) memcpy( ( void * ) pvBuffer, ( void * ) pxQueue->u.xQueue.pcReadFrom, ( size_t ) pxQueue->uxItemSize ); /*lint !e961 !e418 !e9087 MISRA exception as the casts are only redundant for some ports.  Also previous logic ensures a null pointer can only be passed to memcpy() when the count is 0.  Cast to void required by function signature and safe as no alignment requirement and copy length specified in bytes. */
  802354:	e0bffe17 	ldw	r2,-8(fp)
  802358:	10c00317 	ldw	r3,12(r2)
  80235c:	e0bffe17 	ldw	r2,-8(fp)
  802360:	10801017 	ldw	r2,64(r2)
  802364:	100d883a 	mov	r6,r2
  802368:	180b883a 	mov	r5,r3
  80236c:	e13fff17 	ldw	r4,-4(fp)
  802370:	08066200 	call	806620 <memcpy>
	}
}
  802374:	0001883a 	nop
  802378:	e037883a 	mov	sp,fp
  80237c:	dfc00117 	ldw	ra,4(sp)
  802380:	df000017 	ldw	fp,0(sp)
  802384:	dec00204 	addi	sp,sp,8
  802388:	f800283a 	ret

0080238c <prvUnlockQueue>:
/*-----------------------------------------------------------*/

static void prvUnlockQueue( Queue_t * const pxQueue )
{
  80238c:	defffc04 	addi	sp,sp,-16
  802390:	dfc00315 	stw	ra,12(sp)
  802394:	df000215 	stw	fp,8(sp)
  802398:	df000204 	addi	fp,sp,8
  80239c:	e13fff15 	stw	r4,-4(fp)

	/* The lock counts contains the number of extra data items placed or
	removed from the queue while the queue was locked.  When a queue is
	locked items can be added or removed, but the event lists cannot be
	updated. */
	taskENTER_CRITICAL();
  8023a0:	0804ff40 	call	804ff4 <vTaskEnterCritical>
	{
		int8_t cTxLock = pxQueue->cTxLock;
  8023a4:	e0bfff17 	ldw	r2,-4(fp)
  8023a8:	10801143 	ldbu	r2,69(r2)
  8023ac:	e0bffe05 	stb	r2,-8(fp)

		/* See if data was added to the queue while it was locked. */
		while( cTxLock > queueLOCKED_UNMODIFIED )
  8023b0:	00000c06 	br	8023e4 <prvUnlockQueue+0x58>
			}
			#else /* configUSE_QUEUE_SETS */
			{
				/* Tasks that are removed from the event list will get added to
				the pending ready list as the scheduler is still suspended. */
				if( listLIST_IS_EMPTY( &( pxQueue->xTasksWaitingToReceive ) ) == pdFALSE )
  8023b4:	e0bfff17 	ldw	r2,-4(fp)
  8023b8:	10800917 	ldw	r2,36(r2)
  8023bc:	10000c26 	beq	r2,zero,8023f0 <prvUnlockQueue+0x64>
				{
					if( xTaskRemoveFromEventList( &( pxQueue->xTasksWaitingToReceive ) ) != pdFALSE )
  8023c0:	e0bfff17 	ldw	r2,-4(fp)
  8023c4:	10800904 	addi	r2,r2,36
  8023c8:	1009883a 	mov	r4,r2
  8023cc:	08046540 	call	804654 <xTaskRemoveFromEventList>
  8023d0:	10000126 	beq	r2,zero,8023d8 <prvUnlockQueue+0x4c>
					{
						/* The task waiting has a higher priority so record that
						a context switch is required. */
						vTaskMissedYield();
  8023d4:	08049780 	call	804978 <vTaskMissedYield>
					break;
				}
			}
			#endif /* configUSE_QUEUE_SETS */

			--cTxLock;
  8023d8:	e0bffe03 	ldbu	r2,-8(fp)
  8023dc:	10bfffc4 	addi	r2,r2,-1
  8023e0:	e0bffe05 	stb	r2,-8(fp)
	taskENTER_CRITICAL();
	{
		int8_t cTxLock = pxQueue->cTxLock;

		/* See if data was added to the queue while it was locked. */
		while( cTxLock > queueLOCKED_UNMODIFIED )
  8023e4:	e0bffe07 	ldb	r2,-8(fp)
  8023e8:	00bff216 	blt	zero,r2,8023b4 <__alt_mem_onchip_memory2_0+0xff7823b4>
  8023ec:	00000106 	br	8023f4 <prvUnlockQueue+0x68>
						mtCOVERAGE_TEST_MARKER();
					}
				}
				else
				{
					break;
  8023f0:	0001883a 	nop
			#endif /* configUSE_QUEUE_SETS */

			--cTxLock;
		}

		pxQueue->cTxLock = queueUNLOCKED;
  8023f4:	e0bfff17 	ldw	r2,-4(fp)
  8023f8:	00ffffc4 	movi	r3,-1
  8023fc:	10c01145 	stb	r3,69(r2)
	}
	taskEXIT_CRITICAL();
  802400:	08050480 	call	805048 <vTaskExitCritical>

	/* Do the same for the Rx lock. */
	taskENTER_CRITICAL();
  802404:	0804ff40 	call	804ff4 <vTaskEnterCritical>
	{
		int8_t cRxLock = pxQueue->cRxLock;
  802408:	e0bfff17 	ldw	r2,-4(fp)
  80240c:	10801103 	ldbu	r2,68(r2)
  802410:	e0bffe45 	stb	r2,-7(fp)

		while( cRxLock > queueLOCKED_UNMODIFIED )
  802414:	00000c06 	br	802448 <prvUnlockQueue+0xbc>
		{
			if( listLIST_IS_EMPTY( &( pxQueue->xTasksWaitingToSend ) ) == pdFALSE )
  802418:	e0bfff17 	ldw	r2,-4(fp)
  80241c:	10800417 	ldw	r2,16(r2)
  802420:	10000c26 	beq	r2,zero,802454 <prvUnlockQueue+0xc8>
			{
				if( xTaskRemoveFromEventList( &( pxQueue->xTasksWaitingToSend ) ) != pdFALSE )
  802424:	e0bfff17 	ldw	r2,-4(fp)
  802428:	10800404 	addi	r2,r2,16
  80242c:	1009883a 	mov	r4,r2
  802430:	08046540 	call	804654 <xTaskRemoveFromEventList>
  802434:	10000126 	beq	r2,zero,80243c <prvUnlockQueue+0xb0>
				{
					vTaskMissedYield();
  802438:	08049780 	call	804978 <vTaskMissedYield>
				else
				{
					mtCOVERAGE_TEST_MARKER();
				}

				--cRxLock;
  80243c:	e0bffe43 	ldbu	r2,-7(fp)
  802440:	10bfffc4 	addi	r2,r2,-1
  802444:	e0bffe45 	stb	r2,-7(fp)
	/* Do the same for the Rx lock. */
	taskENTER_CRITICAL();
	{
		int8_t cRxLock = pxQueue->cRxLock;

		while( cRxLock > queueLOCKED_UNMODIFIED )
  802448:	e0bffe47 	ldb	r2,-7(fp)
  80244c:	00bff216 	blt	zero,r2,802418 <__alt_mem_onchip_memory2_0+0xff782418>
  802450:	00000106 	br	802458 <prvUnlockQueue+0xcc>

				--cRxLock;
			}
			else
			{
				break;
  802454:	0001883a 	nop
			}
		}

		pxQueue->cRxLock = queueUNLOCKED;
  802458:	e0bfff17 	ldw	r2,-4(fp)
  80245c:	00ffffc4 	movi	r3,-1
  802460:	10c01105 	stb	r3,68(r2)
	}
	taskEXIT_CRITICAL();
  802464:	08050480 	call	805048 <vTaskExitCritical>
}
  802468:	0001883a 	nop
  80246c:	e037883a 	mov	sp,fp
  802470:	dfc00117 	ldw	ra,4(sp)
  802474:	df000017 	ldw	fp,0(sp)
  802478:	dec00204 	addi	sp,sp,8
  80247c:	f800283a 	ret

00802480 <prvIsQueueEmpty>:
/*-----------------------------------------------------------*/

static BaseType_t prvIsQueueEmpty( const Queue_t *pxQueue )
{
  802480:	defffc04 	addi	sp,sp,-16
  802484:	dfc00315 	stw	ra,12(sp)
  802488:	df000215 	stw	fp,8(sp)
  80248c:	df000204 	addi	fp,sp,8
  802490:	e13fff15 	stw	r4,-4(fp)
BaseType_t xReturn;

	taskENTER_CRITICAL();
  802494:	0804ff40 	call	804ff4 <vTaskEnterCritical>
	{
		if( pxQueue->uxMessagesWaiting == ( UBaseType_t )  0 )
  802498:	e0bfff17 	ldw	r2,-4(fp)
  80249c:	10800e17 	ldw	r2,56(r2)
  8024a0:	1000031e 	bne	r2,zero,8024b0 <prvIsQueueEmpty+0x30>
		{
			xReturn = pdTRUE;
  8024a4:	00800044 	movi	r2,1
  8024a8:	e0bffe15 	stw	r2,-8(fp)
  8024ac:	00000106 	br	8024b4 <prvIsQueueEmpty+0x34>
		}
		else
		{
			xReturn = pdFALSE;
  8024b0:	e03ffe15 	stw	zero,-8(fp)
		}
	}
	taskEXIT_CRITICAL();
  8024b4:	08050480 	call	805048 <vTaskExitCritical>

	return xReturn;
  8024b8:	e0bffe17 	ldw	r2,-8(fp)
}
  8024bc:	e037883a 	mov	sp,fp
  8024c0:	dfc00117 	ldw	ra,4(sp)
  8024c4:	df000017 	ldw	fp,0(sp)
  8024c8:	dec00204 	addi	sp,sp,8
  8024cc:	f800283a 	ret

008024d0 <xQueueIsQueueEmptyFromISR>:
/*-----------------------------------------------------------*/

BaseType_t xQueueIsQueueEmptyFromISR( const QueueHandle_t xQueue )
{
  8024d0:	defffc04 	addi	sp,sp,-16
  8024d4:	df000315 	stw	fp,12(sp)
  8024d8:	df000304 	addi	fp,sp,12
  8024dc:	e13fff15 	stw	r4,-4(fp)
BaseType_t xReturn;
Queue_t * const pxQueue = xQueue;
  8024e0:	e0bfff17 	ldw	r2,-4(fp)
  8024e4:	e0bffe15 	stw	r2,-8(fp)

	configASSERT( pxQueue );
	if( pxQueue->uxMessagesWaiting == ( UBaseType_t ) 0 )
  8024e8:	e0bffe17 	ldw	r2,-8(fp)
  8024ec:	10800e17 	ldw	r2,56(r2)
  8024f0:	1000031e 	bne	r2,zero,802500 <xQueueIsQueueEmptyFromISR+0x30>
	{
		xReturn = pdTRUE;
  8024f4:	00800044 	movi	r2,1
  8024f8:	e0bffd15 	stw	r2,-12(fp)
  8024fc:	00000106 	br	802504 <xQueueIsQueueEmptyFromISR+0x34>
	}
	else
	{
		xReturn = pdFALSE;
  802500:	e03ffd15 	stw	zero,-12(fp)
	}

	return xReturn;
  802504:	e0bffd17 	ldw	r2,-12(fp)
} /*lint !e818 xQueue could not be pointer to const because it is a typedef. */
  802508:	e037883a 	mov	sp,fp
  80250c:	df000017 	ldw	fp,0(sp)
  802510:	dec00104 	addi	sp,sp,4
  802514:	f800283a 	ret

00802518 <prvIsQueueFull>:
/*-----------------------------------------------------------*/

static BaseType_t prvIsQueueFull( const Queue_t *pxQueue )
{
  802518:	defffc04 	addi	sp,sp,-16
  80251c:	dfc00315 	stw	ra,12(sp)
  802520:	df000215 	stw	fp,8(sp)
  802524:	df000204 	addi	fp,sp,8
  802528:	e13fff15 	stw	r4,-4(fp)
BaseType_t xReturn;

	taskENTER_CRITICAL();
  80252c:	0804ff40 	call	804ff4 <vTaskEnterCritical>
	{
		if( pxQueue->uxMessagesWaiting == pxQueue->uxLength )
  802530:	e0bfff17 	ldw	r2,-4(fp)
  802534:	10c00e17 	ldw	r3,56(r2)
  802538:	e0bfff17 	ldw	r2,-4(fp)
  80253c:	10800f17 	ldw	r2,60(r2)
  802540:	1880031e 	bne	r3,r2,802550 <prvIsQueueFull+0x38>
		{
			xReturn = pdTRUE;
  802544:	00800044 	movi	r2,1
  802548:	e0bffe15 	stw	r2,-8(fp)
  80254c:	00000106 	br	802554 <prvIsQueueFull+0x3c>
		}
		else
		{
			xReturn = pdFALSE;
  802550:	e03ffe15 	stw	zero,-8(fp)
		}
	}
	taskEXIT_CRITICAL();
  802554:	08050480 	call	805048 <vTaskExitCritical>

	return xReturn;
  802558:	e0bffe17 	ldw	r2,-8(fp)
}
  80255c:	e037883a 	mov	sp,fp
  802560:	dfc00117 	ldw	ra,4(sp)
  802564:	df000017 	ldw	fp,0(sp)
  802568:	dec00204 	addi	sp,sp,8
  80256c:	f800283a 	ret

00802570 <xQueueIsQueueFullFromISR>:
/*-----------------------------------------------------------*/

BaseType_t xQueueIsQueueFullFromISR( const QueueHandle_t xQueue )
{
  802570:	defffc04 	addi	sp,sp,-16
  802574:	df000315 	stw	fp,12(sp)
  802578:	df000304 	addi	fp,sp,12
  80257c:	e13fff15 	stw	r4,-4(fp)
BaseType_t xReturn;
Queue_t * const pxQueue = xQueue;
  802580:	e0bfff17 	ldw	r2,-4(fp)
  802584:	e0bffe15 	stw	r2,-8(fp)

	configASSERT( pxQueue );
	if( pxQueue->uxMessagesWaiting == pxQueue->uxLength )
  802588:	e0bffe17 	ldw	r2,-8(fp)
  80258c:	10c00e17 	ldw	r3,56(r2)
  802590:	e0bffe17 	ldw	r2,-8(fp)
  802594:	10800f17 	ldw	r2,60(r2)
  802598:	1880031e 	bne	r3,r2,8025a8 <xQueueIsQueueFullFromISR+0x38>
	{
		xReturn = pdTRUE;
  80259c:	00800044 	movi	r2,1
  8025a0:	e0bffd15 	stw	r2,-12(fp)
  8025a4:	00000106 	br	8025ac <xQueueIsQueueFullFromISR+0x3c>
	}
	else
	{
		xReturn = pdFALSE;
  8025a8:	e03ffd15 	stw	zero,-12(fp)
	}

	return xReturn;
  8025ac:	e0bffd17 	ldw	r2,-12(fp)
} /*lint !e818 xQueue could not be pointer to const because it is a typedef. */
  8025b0:	e037883a 	mov	sp,fp
  8025b4:	df000017 	ldw	fp,0(sp)
  8025b8:	dec00104 	addi	sp,sp,4
  8025bc:	f800283a 	ret

008025c0 <xStreamBufferGenericCreate>:
/*-----------------------------------------------------------*/

#if( configSUPPORT_DYNAMIC_ALLOCATION == 1 )

	StreamBufferHandle_t xStreamBufferGenericCreate( size_t xBufferSizeBytes, size_t xTriggerLevelBytes, BaseType_t xIsMessageBuffer )
	{
  8025c0:	defff804 	addi	sp,sp,-32
  8025c4:	dfc00715 	stw	ra,28(sp)
  8025c8:	df000615 	stw	fp,24(sp)
  8025cc:	df000604 	addi	fp,sp,24
  8025d0:	e13ffd15 	stw	r4,-12(fp)
  8025d4:	e17ffe15 	stw	r5,-8(fp)
  8025d8:	e1bfff15 	stw	r6,-4(fp)

		/* In case the stream buffer is going to be used as a message buffer
		(that is, it will hold discrete messages with a little meta data that
		says how big the next message is) check the buffer will be large enough
		to hold at least one message. */
		if( xIsMessageBuffer == pdTRUE )
  8025dc:	e0bfff17 	ldw	r2,-4(fp)
  8025e0:	10800058 	cmpnei	r2,r2,1
  8025e4:	1000031e 	bne	r2,zero,8025f4 <xStreamBufferGenericCreate+0x34>
		{
			/* Is a message buffer but not statically allocated. */
			ucFlags = sbFLAGS_IS_MESSAGE_BUFFER;
  8025e8:	00800044 	movi	r2,1
  8025ec:	e0bffb05 	stb	r2,-20(fp)
  8025f0:	00000106 	br	8025f8 <xStreamBufferGenericCreate+0x38>
			configASSERT( xBufferSizeBytes > sbBYTES_TO_STORE_MESSAGE_LENGTH );
		}
		else
		{
			/* Not a message buffer and not statically allocated. */
			ucFlags = 0;
  8025f4:	e03ffb05 	stb	zero,-20(fp)
		}
		configASSERT( xTriggerLevelBytes <= xBufferSizeBytes );

		/* A trigger level of 0 would cause a waiting task to unblock even when
		the buffer was empty. */
		if( xTriggerLevelBytes == ( size_t ) 0 )
  8025f8:	e0bffe17 	ldw	r2,-8(fp)
  8025fc:	1000021e 	bne	r2,zero,802608 <xStreamBufferGenericCreate+0x48>
		{
			xTriggerLevelBytes = ( size_t ) 1;
  802600:	00800044 	movi	r2,1
  802604:	e0bffe15 	stw	r2,-8(fp)
		and the buffer follows immediately after.  The requested size is
		incremented so the free space is returned as the user would expect -
		this is a quirk of the implementation that means otherwise the free
		space would be reported as one byte smaller than would be logically
		expected. */
		xBufferSizeBytes++;
  802608:	e0bffd17 	ldw	r2,-12(fp)
  80260c:	10800044 	addi	r2,r2,1
  802610:	e0bffd15 	stw	r2,-12(fp)
		pucAllocatedMemory = ( uint8_t * ) pvPortMalloc( xBufferSizeBytes + sizeof( StreamBuffer_t ) ); /*lint !e9079 malloc() only returns void*. */
  802614:	e0bffd17 	ldw	r2,-12(fp)
  802618:	10800804 	addi	r2,r2,32
  80261c:	1009883a 	mov	r4,r2
  802620:	080101c0 	call	80101c <pvPortMalloc>
  802624:	e0bffc15 	stw	r2,-16(fp)

		if( pucAllocatedMemory != NULL )
  802628:	e0bffc17 	ldw	r2,-16(fp)
  80262c:	10000926 	beq	r2,zero,802654 <xStreamBufferGenericCreate+0x94>
		{
			prvInitialiseNewStreamBuffer( ( StreamBuffer_t * ) pucAllocatedMemory, /* Structure at the start of the allocated memory. */ /*lint !e9087 Safe cast as allocated memory is aligned. */ /*lint !e826 Area is not too small and alignment is guaranteed provided malloc() behaves as expected and returns aligned buffer. */
  802630:	e0bffc17 	ldw	r2,-16(fp)
  802634:	10c00804 	addi	r3,r2,32
  802638:	e0bffb03 	ldbu	r2,-20(fp)
  80263c:	d8800015 	stw	r2,0(sp)
  802640:	e1fffe17 	ldw	r7,-8(fp)
  802644:	e1bffd17 	ldw	r6,-12(fp)
  802648:	180b883a 	mov	r5,r3
  80264c:	e13ffc17 	ldw	r4,-16(fp)
  802650:	08033e40 	call	8033e4 <prvInitialiseNewStreamBuffer>
		else
		{
			traceSTREAM_BUFFER_CREATE_FAILED( xIsMessageBuffer );
		}

		return ( StreamBufferHandle_t ) pucAllocatedMemory; /*lint !e9087 !e826 Safe cast as allocated memory is aligned. */
  802654:	e0bffc17 	ldw	r2,-16(fp)
	}
  802658:	e037883a 	mov	sp,fp
  80265c:	dfc00117 	ldw	ra,4(sp)
  802660:	df000017 	ldw	fp,0(sp)
  802664:	dec00204 	addi	sp,sp,8
  802668:	f800283a 	ret

0080266c <vStreamBufferDelete>:

#endif /* ( configSUPPORT_STATIC_ALLOCATION == 1 ) */
/*-----------------------------------------------------------*/

void vStreamBufferDelete( StreamBufferHandle_t xStreamBuffer )
{
  80266c:	defffc04 	addi	sp,sp,-16
  802670:	dfc00315 	stw	ra,12(sp)
  802674:	df000215 	stw	fp,8(sp)
  802678:	df000204 	addi	fp,sp,8
  80267c:	e13fff15 	stw	r4,-4(fp)
StreamBuffer_t * pxStreamBuffer = xStreamBuffer;
  802680:	e0bfff17 	ldw	r2,-4(fp)
  802684:	e0bffe15 	stw	r2,-8(fp)

	configASSERT( pxStreamBuffer );

	traceSTREAM_BUFFER_DELETE( xStreamBuffer );

	if( ( pxStreamBuffer->ucFlags & sbFLAGS_IS_STATICALLY_ALLOCATED ) == ( uint8_t ) pdFALSE )
  802688:	e0bffe17 	ldw	r2,-8(fp)
  80268c:	10800703 	ldbu	r2,28(r2)
  802690:	10803fcc 	andi	r2,r2,255
  802694:	1080008c 	andi	r2,r2,2
  802698:	1000031e 	bne	r2,zero,8026a8 <vStreamBufferDelete+0x3c>
	{
		#if( configSUPPORT_DYNAMIC_ALLOCATION == 1 )
		{
			/* Both the structure and the buffer were allocated using a single call
			to pvPortMalloc(), hence only one call to vPortFree() is required. */
			vPortFree( ( void * ) pxStreamBuffer ); /*lint !e9087 Standard free() semantics require void *, plus pxStreamBuffer was allocated by pvPortMalloc(). */
  80269c:	e13ffe17 	ldw	r4,-8(fp)
  8026a0:	08010dc0 	call	8010dc <vPortFree>
	{
		/* The structure and buffer were not allocated dynamically and cannot be
		freed - just scrub the structure so future use will assert. */
		( void ) memset( pxStreamBuffer, 0x00, sizeof( StreamBuffer_t ) );
	}
}
  8026a4:	00000406 	br	8026b8 <vStreamBufferDelete+0x4c>
	}
	else
	{
		/* The structure and buffer were not allocated dynamically and cannot be
		freed - just scrub the structure so future use will assert. */
		( void ) memset( pxStreamBuffer, 0x00, sizeof( StreamBuffer_t ) );
  8026a8:	01800804 	movi	r6,32
  8026ac:	000b883a 	mov	r5,zero
  8026b0:	e13ffe17 	ldw	r4,-8(fp)
  8026b4:	08066480 	call	806648 <memset>
	}
}
  8026b8:	0001883a 	nop
  8026bc:	e037883a 	mov	sp,fp
  8026c0:	dfc00117 	ldw	ra,4(sp)
  8026c4:	df000017 	ldw	fp,0(sp)
  8026c8:	dec00204 	addi	sp,sp,8
  8026cc:	f800283a 	ret

008026d0 <xStreamBufferReset>:
/*-----------------------------------------------------------*/

BaseType_t xStreamBufferReset( StreamBufferHandle_t xStreamBuffer )
{
  8026d0:	defffa04 	addi	sp,sp,-24
  8026d4:	dfc00515 	stw	ra,20(sp)
  8026d8:	df000415 	stw	fp,16(sp)
  8026dc:	df000404 	addi	fp,sp,16
  8026e0:	e13fff15 	stw	r4,-4(fp)
StreamBuffer_t * const pxStreamBuffer = xStreamBuffer;
  8026e4:	e0bfff17 	ldw	r2,-4(fp)
  8026e8:	e0bffe15 	stw	r2,-8(fp)
BaseType_t xReturn = pdFAIL;
  8026ec:	e03ffd15 	stw	zero,-12(fp)
		uxStreamBufferNumber = pxStreamBuffer->uxStreamBufferNumber;
	}
	#endif

	/* Can only reset a message buffer if there are no tasks blocked on it. */
	taskENTER_CRITICAL();
  8026f0:	0804ff40 	call	804ff4 <vTaskEnterCritical>
	{
		if( pxStreamBuffer->xTaskWaitingToReceive == NULL )
  8026f4:	e0bffe17 	ldw	r2,-8(fp)
  8026f8:	10800417 	ldw	r2,16(r2)
  8026fc:	1000141e 	bne	r2,zero,802750 <xStreamBufferReset+0x80>
		{
			if( pxStreamBuffer->xTaskWaitingToSend == NULL )
  802700:	e0bffe17 	ldw	r2,-8(fp)
  802704:	10800517 	ldw	r2,20(r2)
  802708:	1000111e 	bne	r2,zero,802750 <xStreamBufferReset+0x80>
			{
				prvInitialiseNewStreamBuffer( pxStreamBuffer,
  80270c:	e0bffe17 	ldw	r2,-8(fp)
  802710:	10c00617 	ldw	r3,24(r2)
  802714:	e0bffe17 	ldw	r2,-8(fp)
  802718:	11000217 	ldw	r4,8(r2)
  80271c:	e0bffe17 	ldw	r2,-8(fp)
  802720:	11400317 	ldw	r5,12(r2)
											  pxStreamBuffer->pucBuffer,
											  pxStreamBuffer->xLength,
											  pxStreamBuffer->xTriggerLevelBytes,
											  pxStreamBuffer->ucFlags );
  802724:	e0bffe17 	ldw	r2,-8(fp)
  802728:	10800703 	ldbu	r2,28(r2)
	{
		if( pxStreamBuffer->xTaskWaitingToReceive == NULL )
		{
			if( pxStreamBuffer->xTaskWaitingToSend == NULL )
			{
				prvInitialiseNewStreamBuffer( pxStreamBuffer,
  80272c:	10803fcc 	andi	r2,r2,255
  802730:	d8800015 	stw	r2,0(sp)
  802734:	280f883a 	mov	r7,r5
  802738:	200d883a 	mov	r6,r4
  80273c:	180b883a 	mov	r5,r3
  802740:	e13ffe17 	ldw	r4,-8(fp)
  802744:	08033e40 	call	8033e4 <prvInitialiseNewStreamBuffer>
											  pxStreamBuffer->pucBuffer,
											  pxStreamBuffer->xLength,
											  pxStreamBuffer->xTriggerLevelBytes,
											  pxStreamBuffer->ucFlags );
				xReturn = pdPASS;
  802748:	00800044 	movi	r2,1
  80274c:	e0bffd15 	stw	r2,-12(fp)

				traceSTREAM_BUFFER_RESET( xStreamBuffer );
			}
		}
	}
	taskEXIT_CRITICAL();
  802750:	08050480 	call	805048 <vTaskExitCritical>

	return xReturn;
  802754:	e0bffd17 	ldw	r2,-12(fp)
}
  802758:	e037883a 	mov	sp,fp
  80275c:	dfc00117 	ldw	ra,4(sp)
  802760:	df000017 	ldw	fp,0(sp)
  802764:	dec00204 	addi	sp,sp,8
  802768:	f800283a 	ret

0080276c <xStreamBufferSetTriggerLevel>:
/*-----------------------------------------------------------*/

BaseType_t xStreamBufferSetTriggerLevel( StreamBufferHandle_t xStreamBuffer, size_t xTriggerLevel )
{
  80276c:	defffb04 	addi	sp,sp,-20
  802770:	df000415 	stw	fp,16(sp)
  802774:	df000404 	addi	fp,sp,16
  802778:	e13ffe15 	stw	r4,-8(fp)
  80277c:	e17fff15 	stw	r5,-4(fp)
StreamBuffer_t * const pxStreamBuffer = xStreamBuffer;
  802780:	e0bffe17 	ldw	r2,-8(fp)
  802784:	e0bffd15 	stw	r2,-12(fp)
BaseType_t xReturn;

	configASSERT( pxStreamBuffer );

	/* It is not valid for the trigger level to be 0. */
	if( xTriggerLevel == ( size_t ) 0 )
  802788:	e0bfff17 	ldw	r2,-4(fp)
  80278c:	1000021e 	bne	r2,zero,802798 <xStreamBufferSetTriggerLevel+0x2c>
	{
		xTriggerLevel = ( size_t ) 1;
  802790:	00800044 	movi	r2,1
  802794:	e0bfff15 	stw	r2,-4(fp)
	}

	/* The trigger level is the number of bytes that must be in the stream
	buffer before a task that is waiting for data is unblocked. */
	if( xTriggerLevel <= pxStreamBuffer->xLength )
  802798:	e0bffd17 	ldw	r2,-12(fp)
  80279c:	10c00217 	ldw	r3,8(r2)
  8027a0:	e0bfff17 	ldw	r2,-4(fp)
  8027a4:	18800636 	bltu	r3,r2,8027c0 <xStreamBufferSetTriggerLevel+0x54>
	{
		pxStreamBuffer->xTriggerLevelBytes = xTriggerLevel;
  8027a8:	e0bffd17 	ldw	r2,-12(fp)
  8027ac:	e0ffff17 	ldw	r3,-4(fp)
  8027b0:	10c00315 	stw	r3,12(r2)
		xReturn = pdPASS;
  8027b4:	00800044 	movi	r2,1
  8027b8:	e0bffc15 	stw	r2,-16(fp)
  8027bc:	00000106 	br	8027c4 <xStreamBufferSetTriggerLevel+0x58>
	}
	else
	{
		xReturn = pdFALSE;
  8027c0:	e03ffc15 	stw	zero,-16(fp)
	}

	return xReturn;
  8027c4:	e0bffc17 	ldw	r2,-16(fp)
}
  8027c8:	e037883a 	mov	sp,fp
  8027cc:	df000017 	ldw	fp,0(sp)
  8027d0:	dec00104 	addi	sp,sp,4
  8027d4:	f800283a 	ret

008027d8 <xStreamBufferSpacesAvailable>:
/*-----------------------------------------------------------*/

size_t xStreamBufferSpacesAvailable( StreamBufferHandle_t xStreamBuffer )
{
  8027d8:	defffc04 	addi	sp,sp,-16
  8027dc:	df000315 	stw	fp,12(sp)
  8027e0:	df000304 	addi	fp,sp,12
  8027e4:	e13fff15 	stw	r4,-4(fp)
const StreamBuffer_t * const pxStreamBuffer = xStreamBuffer;
  8027e8:	e0bfff17 	ldw	r2,-4(fp)
  8027ec:	e0bffe15 	stw	r2,-8(fp)
size_t xSpace;

	configASSERT( pxStreamBuffer );

	xSpace = pxStreamBuffer->xLength + pxStreamBuffer->xTail;
  8027f0:	e0bffe17 	ldw	r2,-8(fp)
  8027f4:	10c00217 	ldw	r3,8(r2)
  8027f8:	e0bffe17 	ldw	r2,-8(fp)
  8027fc:	10800017 	ldw	r2,0(r2)
  802800:	1885883a 	add	r2,r3,r2
  802804:	e0bffd15 	stw	r2,-12(fp)
	xSpace -= pxStreamBuffer->xHead;
  802808:	e0bffe17 	ldw	r2,-8(fp)
  80280c:	10800117 	ldw	r2,4(r2)
  802810:	e0fffd17 	ldw	r3,-12(fp)
  802814:	1885c83a 	sub	r2,r3,r2
  802818:	e0bffd15 	stw	r2,-12(fp)
	xSpace -= ( size_t ) 1;
  80281c:	e0bffd17 	ldw	r2,-12(fp)
  802820:	10bfffc4 	addi	r2,r2,-1
  802824:	e0bffd15 	stw	r2,-12(fp)

	if( xSpace >= pxStreamBuffer->xLength )
  802828:	e0bffe17 	ldw	r2,-8(fp)
  80282c:	10800217 	ldw	r2,8(r2)
  802830:	e0fffd17 	ldw	r3,-12(fp)
  802834:	18800536 	bltu	r3,r2,80284c <xStreamBufferSpacesAvailable+0x74>
	{
		xSpace -= pxStreamBuffer->xLength;
  802838:	e0bffe17 	ldw	r2,-8(fp)
  80283c:	10800217 	ldw	r2,8(r2)
  802840:	e0fffd17 	ldw	r3,-12(fp)
  802844:	1885c83a 	sub	r2,r3,r2
  802848:	e0bffd15 	stw	r2,-12(fp)
	else
	{
		mtCOVERAGE_TEST_MARKER();
	}

	return xSpace;
  80284c:	e0bffd17 	ldw	r2,-12(fp)
}
  802850:	e037883a 	mov	sp,fp
  802854:	df000017 	ldw	fp,0(sp)
  802858:	dec00104 	addi	sp,sp,4
  80285c:	f800283a 	ret

00802860 <xStreamBufferBytesAvailable>:
/*-----------------------------------------------------------*/

size_t xStreamBufferBytesAvailable( StreamBufferHandle_t xStreamBuffer )
{
  802860:	defffb04 	addi	sp,sp,-20
  802864:	dfc00415 	stw	ra,16(sp)
  802868:	df000315 	stw	fp,12(sp)
  80286c:	df000304 	addi	fp,sp,12
  802870:	e13fff15 	stw	r4,-4(fp)
const StreamBuffer_t * const pxStreamBuffer = xStreamBuffer;
  802874:	e0bfff17 	ldw	r2,-4(fp)
  802878:	e0bffd15 	stw	r2,-12(fp)
size_t xReturn;

	configASSERT( pxStreamBuffer );

	xReturn = prvBytesInBuffer( pxStreamBuffer );
  80287c:	e13ffd17 	ldw	r4,-12(fp)
  802880:	08033700 	call	803370 <prvBytesInBuffer>
  802884:	e0bffe15 	stw	r2,-8(fp)
	return xReturn;
  802888:	e0bffe17 	ldw	r2,-8(fp)
}
  80288c:	e037883a 	mov	sp,fp
  802890:	dfc00117 	ldw	ra,4(sp)
  802894:	df000017 	ldw	fp,0(sp)
  802898:	dec00204 	addi	sp,sp,8
  80289c:	f800283a 	ret

008028a0 <xStreamBufferSend>:

size_t xStreamBufferSend( StreamBufferHandle_t xStreamBuffer,
						  const void *pvTxData,
						  size_t xDataLengthBytes,
						  TickType_t xTicksToWait )
{
  8028a0:	defff304 	addi	sp,sp,-52
  8028a4:	dfc00c15 	stw	ra,48(sp)
  8028a8:	df000b15 	stw	fp,44(sp)
  8028ac:	df000b04 	addi	fp,sp,44
  8028b0:	e13ffc15 	stw	r4,-16(fp)
  8028b4:	e17ffd15 	stw	r5,-12(fp)
  8028b8:	e1bffe15 	stw	r6,-8(fp)
  8028bc:	e1ffff15 	stw	r7,-4(fp)
StreamBuffer_t * const pxStreamBuffer = xStreamBuffer;
  8028c0:	e0bffc17 	ldw	r2,-16(fp)
  8028c4:	e0bff815 	stw	r2,-32(fp)
size_t xReturn, xSpace = 0;
  8028c8:	e03ff615 	stw	zero,-40(fp)
size_t xRequiredSpace = xDataLengthBytes;
  8028cc:	e0bffe17 	ldw	r2,-8(fp)
  8028d0:	e0bff715 	stw	r2,-36(fp)

	/* This send function is used to write to both message buffers and stream
	buffers.  If this is a message buffer then the space needed must be
	increased by the amount of bytes needed to store the length of the
	message. */
	if( ( pxStreamBuffer->ucFlags & sbFLAGS_IS_MESSAGE_BUFFER ) != ( uint8_t ) 0 )
  8028d4:	e0bff817 	ldw	r2,-32(fp)
  8028d8:	10800703 	ldbu	r2,28(r2)
  8028dc:	10803fcc 	andi	r2,r2,255
  8028e0:	1080004c 	andi	r2,r2,1
  8028e4:	10000326 	beq	r2,zero,8028f4 <xStreamBufferSend+0x54>
	{
		xRequiredSpace += sbBYTES_TO_STORE_MESSAGE_LENGTH;
  8028e8:	e0bff717 	ldw	r2,-36(fp)
  8028ec:	10800104 	addi	r2,r2,4
  8028f0:	e0bff715 	stw	r2,-36(fp)
	else
	{
		mtCOVERAGE_TEST_MARKER();
	}

	if( xTicksToWait != ( TickType_t ) 0 )
  8028f4:	e0bfff17 	ldw	r2,-4(fp)
  8028f8:	10002226 	beq	r2,zero,802984 <xStreamBufferSend+0xe4>
	{
		vTaskSetTimeOutState( &xTimeOut );
  8028fc:	e0bffa04 	addi	r2,fp,-24
  802900:	1009883a 	mov	r4,r2
  802904:	08048100 	call	804810 <vTaskSetTimeOutState>

		do
		{
			/* Wait until the required number of bytes are free in the message
			buffer. */
			taskENTER_CRITICAL();
  802908:	0804ff40 	call	804ff4 <vTaskEnterCritical>
			{
				xSpace = xStreamBufferSpacesAvailable( pxStreamBuffer );
  80290c:	e13ff817 	ldw	r4,-32(fp)
  802910:	08027d80 	call	8027d8 <xStreamBufferSpacesAvailable>
  802914:	e0bff615 	stw	r2,-40(fp)

				if( xSpace < xRequiredSpace )
  802918:	e0fff617 	ldw	r3,-40(fp)
  80291c:	e0bff717 	ldw	r2,-36(fp)
  802920:	1880072e 	bgeu	r3,r2,802940 <xStreamBufferSend+0xa0>
				{
					/* Clear notification state as going to wait for space. */
					( void ) xTaskNotifyStateClear( NULL );
  802924:	0009883a 	mov	r4,zero
  802928:	08057780 	call	805778 <xTaskNotifyStateClear>

					/* Should only be one writer. */
					configASSERT( pxStreamBuffer->xTaskWaitingToSend == NULL );
					pxStreamBuffer->xTaskWaitingToSend = xTaskGetCurrentTaskHandle();
  80292c:	0804c500 	call	804c50 <xTaskGetCurrentTaskHandle>
  802930:	1007883a 	mov	r3,r2
  802934:	e0bff817 	ldw	r2,-32(fp)
  802938:	10c00515 	stw	r3,20(r2)
  80293c:	00000206 	br	802948 <xStreamBufferSend+0xa8>
				}
				else
				{
					taskEXIT_CRITICAL();
  802940:	08050480 	call	805048 <vTaskExitCritical>
					break;
  802944:	00000f06 	br	802984 <xStreamBufferSend+0xe4>
				}
			}
			taskEXIT_CRITICAL();
  802948:	08050480 	call	805048 <vTaskExitCritical>

			traceBLOCKING_ON_STREAM_BUFFER_SEND( xStreamBuffer );
			( void ) xTaskNotifyWait( ( uint32_t ) 0, ( uint32_t ) 0, NULL, xTicksToWait );
  80294c:	e0bfff17 	ldw	r2,-4(fp)
  802950:	100f883a 	mov	r7,r2
  802954:	000d883a 	mov	r6,zero
  802958:	000b883a 	mov	r5,zero
  80295c:	0009883a 	mov	r4,zero
  802960:	08051d40 	call	8051d4 <xTaskNotifyWait>
			pxStreamBuffer->xTaskWaitingToSend = NULL;
  802964:	e0bff817 	ldw	r2,-32(fp)
  802968:	10000515 	stw	zero,20(r2)

		} while( xTaskCheckForTimeOut( &xTimeOut, &xTicksToWait ) == pdFALSE );
  80296c:	e0ffff04 	addi	r3,fp,-4
  802970:	e0bffa04 	addi	r2,fp,-24
  802974:	180b883a 	mov	r5,r3
  802978:	1009883a 	mov	r4,r2
  80297c:	08048980 	call	804898 <xTaskCheckForTimeOut>
  802980:	103fe126 	beq	r2,zero,802908 <__alt_mem_onchip_memory2_0+0xff782908>
	else
	{
		mtCOVERAGE_TEST_MARKER();
	}

	if( xSpace == ( size_t ) 0 )
  802984:	e0bff617 	ldw	r2,-40(fp)
  802988:	1000031e 	bne	r2,zero,802998 <xStreamBufferSend+0xf8>
	{
		xSpace = xStreamBufferSpacesAvailable( pxStreamBuffer );
  80298c:	e13ff817 	ldw	r4,-32(fp)
  802990:	08027d80 	call	8027d8 <xStreamBufferSpacesAvailable>
  802994:	e0bff615 	stw	r2,-40(fp)
	else
	{
		mtCOVERAGE_TEST_MARKER();
	}

	xReturn = prvWriteMessageToBuffer( pxStreamBuffer, pvTxData, xDataLengthBytes, xSpace, xRequiredSpace );
  802998:	e0bff717 	ldw	r2,-36(fp)
  80299c:	d8800015 	stw	r2,0(sp)
  8029a0:	e1fff617 	ldw	r7,-40(fp)
  8029a4:	e1bffe17 	ldw	r6,-8(fp)
  8029a8:	e17ffd17 	ldw	r5,-12(fp)
  8029ac:	e13ff817 	ldw	r4,-32(fp)
  8029b0:	0802b180 	call	802b18 <prvWriteMessageToBuffer>
  8029b4:	e0bff915 	stw	r2,-28(fp)

	if( xReturn > ( size_t ) 0 )
  8029b8:	e0bff917 	ldw	r2,-28(fp)
  8029bc:	10001426 	beq	r2,zero,802a10 <xStreamBufferSend+0x170>
	{
		traceSTREAM_BUFFER_SEND( xStreamBuffer, xReturn );

		/* Was a task waiting for the data? */
		if( prvBytesInBuffer( pxStreamBuffer ) >= pxStreamBuffer->xTriggerLevelBytes )
  8029c0:	e13ff817 	ldw	r4,-32(fp)
  8029c4:	08033700 	call	803370 <prvBytesInBuffer>
  8029c8:	1007883a 	mov	r3,r2
  8029cc:	e0bff817 	ldw	r2,-32(fp)
  8029d0:	10800317 	ldw	r2,12(r2)
  8029d4:	18800e36 	bltu	r3,r2,802a10 <xStreamBufferSend+0x170>
		{
			sbSEND_COMPLETED( pxStreamBuffer );
  8029d8:	08040940 	call	804094 <vTaskSuspendAll>
  8029dc:	e0bff817 	ldw	r2,-32(fp)
  8029e0:	10800417 	ldw	r2,16(r2)
  8029e4:	10000926 	beq	r2,zero,802a0c <xStreamBufferSend+0x16c>
  8029e8:	e0bff817 	ldw	r2,-32(fp)
  8029ec:	10800417 	ldw	r2,16(r2)
  8029f0:	000f883a 	mov	r7,zero
  8029f4:	000d883a 	mov	r6,zero
  8029f8:	000b883a 	mov	r5,zero
  8029fc:	1009883a 	mov	r4,r2
  802a00:	08052c80 	call	8052c8 <xTaskGenericNotify>
  802a04:	e0bff817 	ldw	r2,-32(fp)
  802a08:	10000415 	stw	zero,16(r2)
  802a0c:	08040c00 	call	8040c0 <xTaskResumeAll>
	{
		mtCOVERAGE_TEST_MARKER();
		traceSTREAM_BUFFER_SEND_FAILED( xStreamBuffer );
	}

	return xReturn;
  802a10:	e0bff917 	ldw	r2,-28(fp)
}
  802a14:	e037883a 	mov	sp,fp
  802a18:	dfc00117 	ldw	ra,4(sp)
  802a1c:	df000017 	ldw	fp,0(sp)
  802a20:	dec00204 	addi	sp,sp,8
  802a24:	f800283a 	ret

00802a28 <xStreamBufferSendFromISR>:

size_t xStreamBufferSendFromISR( StreamBufferHandle_t xStreamBuffer,
								 const void *pvTxData,
								 size_t xDataLengthBytes,
								 BaseType_t * const pxHigherPriorityTaskWoken )
{
  802a28:	defff404 	addi	sp,sp,-48
  802a2c:	dfc00b15 	stw	ra,44(sp)
  802a30:	df000a15 	stw	fp,40(sp)
  802a34:	df000a04 	addi	fp,sp,40
  802a38:	e13ffc15 	stw	r4,-16(fp)
  802a3c:	e17ffd15 	stw	r5,-12(fp)
  802a40:	e1bffe15 	stw	r6,-8(fp)
  802a44:	e1ffff15 	stw	r7,-4(fp)
StreamBuffer_t * const pxStreamBuffer = xStreamBuffer;
  802a48:	e0bffc17 	ldw	r2,-16(fp)
  802a4c:	e0bff815 	stw	r2,-32(fp)
size_t xReturn, xSpace;
size_t xRequiredSpace = xDataLengthBytes;
  802a50:	e0bffe17 	ldw	r2,-8(fp)
  802a54:	e0bff715 	stw	r2,-36(fp)

	/* This send function is used to write to both message buffers and stream
	buffers.  If this is a message buffer then the space needed must be
	increased by the amount of bytes needed to store the length of the
	message. */
	if( ( pxStreamBuffer->ucFlags & sbFLAGS_IS_MESSAGE_BUFFER ) != ( uint8_t ) 0 )
  802a58:	e0bff817 	ldw	r2,-32(fp)
  802a5c:	10800703 	ldbu	r2,28(r2)
  802a60:	10803fcc 	andi	r2,r2,255
  802a64:	1080004c 	andi	r2,r2,1
  802a68:	10000326 	beq	r2,zero,802a78 <xStreamBufferSendFromISR+0x50>
	{
		xRequiredSpace += sbBYTES_TO_STORE_MESSAGE_LENGTH;
  802a6c:	e0bff717 	ldw	r2,-36(fp)
  802a70:	10800104 	addi	r2,r2,4
  802a74:	e0bff715 	stw	r2,-36(fp)
	else
	{
		mtCOVERAGE_TEST_MARKER();
	}

	xSpace = xStreamBufferSpacesAvailable( pxStreamBuffer );
  802a78:	e13ff817 	ldw	r4,-32(fp)
  802a7c:	08027d80 	call	8027d8 <xStreamBufferSpacesAvailable>
  802a80:	e0bff915 	stw	r2,-28(fp)
	xReturn = prvWriteMessageToBuffer( pxStreamBuffer, pvTxData, xDataLengthBytes, xSpace, xRequiredSpace );
  802a84:	e0bff717 	ldw	r2,-36(fp)
  802a88:	d8800015 	stw	r2,0(sp)
  802a8c:	e1fff917 	ldw	r7,-28(fp)
  802a90:	e1bffe17 	ldw	r6,-8(fp)
  802a94:	e17ffd17 	ldw	r5,-12(fp)
  802a98:	e13ff817 	ldw	r4,-32(fp)
  802a9c:	0802b180 	call	802b18 <prvWriteMessageToBuffer>
  802aa0:	e0bffa15 	stw	r2,-24(fp)

	if( xReturn > ( size_t ) 0 )
  802aa4:	e0bffa17 	ldw	r2,-24(fp)
  802aa8:	10001526 	beq	r2,zero,802b00 <xStreamBufferSendFromISR+0xd8>
	{
		/* Was a task waiting for the data? */
		if( prvBytesInBuffer( pxStreamBuffer ) >= pxStreamBuffer->xTriggerLevelBytes )
  802aac:	e13ff817 	ldw	r4,-32(fp)
  802ab0:	08033700 	call	803370 <prvBytesInBuffer>
  802ab4:	1007883a 	mov	r3,r2
  802ab8:	e0bff817 	ldw	r2,-32(fp)
  802abc:	10800317 	ldw	r2,12(r2)
  802ac0:	18800f36 	bltu	r3,r2,802b00 <xStreamBufferSendFromISR+0xd8>
		{
			sbSEND_COMPLETE_FROM_ISR( pxStreamBuffer, pxHigherPriorityTaskWoken );
  802ac4:	e03ffb15 	stw	zero,-20(fp)
  802ac8:	e0bff817 	ldw	r2,-32(fp)
  802acc:	10800417 	ldw	r2,16(r2)
  802ad0:	10000b26 	beq	r2,zero,802b00 <xStreamBufferSendFromISR+0xd8>
  802ad4:	e0bff817 	ldw	r2,-32(fp)
  802ad8:	10c00417 	ldw	r3,16(r2)
  802adc:	e0bfff17 	ldw	r2,-4(fp)
  802ae0:	d8800015 	stw	r2,0(sp)
  802ae4:	000f883a 	mov	r7,zero
  802ae8:	000d883a 	mov	r6,zero
  802aec:	000b883a 	mov	r5,zero
  802af0:	1809883a 	mov	r4,r3
  802af4:	08054740 	call	805474 <xTaskGenericNotifyFromISR>
  802af8:	e0bff817 	ldw	r2,-32(fp)
  802afc:	10000415 	stw	zero,16(r2)
		mtCOVERAGE_TEST_MARKER();
	}

	traceSTREAM_BUFFER_SEND_FROM_ISR( xStreamBuffer, xReturn );

	return xReturn;
  802b00:	e0bffa17 	ldw	r2,-24(fp)
}
  802b04:	e037883a 	mov	sp,fp
  802b08:	dfc00117 	ldw	ra,4(sp)
  802b0c:	df000017 	ldw	fp,0(sp)
  802b10:	dec00204 	addi	sp,sp,8
  802b14:	f800283a 	ret

00802b18 <prvWriteMessageToBuffer>:
static size_t prvWriteMessageToBuffer( StreamBuffer_t * const pxStreamBuffer,
									   const void * pvTxData,
									   size_t xDataLengthBytes,
									   size_t xSpace,
									   size_t xRequiredSpace )
{
  802b18:	defff804 	addi	sp,sp,-32
  802b1c:	dfc00715 	stw	ra,28(sp)
  802b20:	df000615 	stw	fp,24(sp)
  802b24:	df000604 	addi	fp,sp,24
  802b28:	e13ffc15 	stw	r4,-16(fp)
  802b2c:	e17ffd15 	stw	r5,-12(fp)
  802b30:	e1bffe15 	stw	r6,-8(fp)
  802b34:	e1ffff15 	stw	r7,-4(fp)
	BaseType_t xShouldWrite;
	size_t xReturn;

	if( xSpace == ( size_t ) 0 )
  802b38:	e0bfff17 	ldw	r2,-4(fp)
  802b3c:	1000021e 	bne	r2,zero,802b48 <prvWriteMessageToBuffer+0x30>
	{
		/* Doesn't matter if this is a stream buffer or a message buffer, there
		is no space to write. */
		xShouldWrite = pdFALSE;
  802b40:	e03ffa15 	stw	zero,-24(fp)
  802b44:	00001906 	br	802bac <prvWriteMessageToBuffer+0x94>
	}
	else if( ( pxStreamBuffer->ucFlags & sbFLAGS_IS_MESSAGE_BUFFER ) == ( uint8_t ) 0 )
  802b48:	e0bffc17 	ldw	r2,-16(fp)
  802b4c:	10800703 	ldbu	r2,28(r2)
  802b50:	10803fcc 	andi	r2,r2,255
  802b54:	1080004c 	andi	r2,r2,1
  802b58:	1000081e 	bne	r2,zero,802b7c <prvWriteMessageToBuffer+0x64>
	{
		/* This is a stream buffer, as opposed to a message buffer, so writing a
		stream of bytes rather than discrete messages.  Write as many bytes as
		possible. */
		xShouldWrite = pdTRUE;
  802b5c:	00800044 	movi	r2,1
  802b60:	e0bffa15 	stw	r2,-24(fp)
		xDataLengthBytes = configMIN( xDataLengthBytes, xSpace );
  802b64:	e0fffe17 	ldw	r3,-8(fp)
  802b68:	e0bfff17 	ldw	r2,-4(fp)
  802b6c:	1880012e 	bgeu	r3,r2,802b74 <prvWriteMessageToBuffer+0x5c>
  802b70:	1805883a 	mov	r2,r3
  802b74:	e0bffe15 	stw	r2,-8(fp)
  802b78:	00000c06 	br	802bac <prvWriteMessageToBuffer+0x94>
	}
	else if( xSpace >= xRequiredSpace )
  802b7c:	e0ffff17 	ldw	r3,-4(fp)
  802b80:	e0800217 	ldw	r2,8(fp)
  802b84:	18800836 	bltu	r3,r2,802ba8 <prvWriteMessageToBuffer+0x90>
	{
		/* This is a message buffer, as opposed to a stream buffer, and there
		is enough space to write both the message length and the message itself
		into the buffer.  Start by writing the length of the data, the data
		itself will be written later in this function. */
		xShouldWrite = pdTRUE;
  802b88:	00800044 	movi	r2,1
  802b8c:	e0bffa15 	stw	r2,-24(fp)
		( void ) prvWriteBytesToBuffer( pxStreamBuffer, ( const uint8_t * ) &( xDataLengthBytes ), sbBYTES_TO_STORE_MESSAGE_LENGTH );
  802b90:	e0bffe04 	addi	r2,fp,-8
  802b94:	01800104 	movi	r6,4
  802b98:	100b883a 	mov	r5,r2
  802b9c:	e13ffc17 	ldw	r4,-16(fp)
  802ba0:	08031680 	call	803168 <prvWriteBytesToBuffer>
  802ba4:	00000106 	br	802bac <prvWriteMessageToBuffer+0x94>
	}
	else
	{
		/* There is space available, but not enough space. */
		xShouldWrite = pdFALSE;
  802ba8:	e03ffa15 	stw	zero,-24(fp)
	}

	if( xShouldWrite != pdFALSE )
  802bac:	e0bffa17 	ldw	r2,-24(fp)
  802bb0:	10000726 	beq	r2,zero,802bd0 <prvWriteMessageToBuffer+0xb8>
	{
		/* Writes the data itself. */
		xReturn = prvWriteBytesToBuffer( pxStreamBuffer, ( const uint8_t * ) pvTxData, xDataLengthBytes ); /*lint !e9079 Storage buffer is implemented as uint8_t for ease of sizing, alighment and access. */
  802bb4:	e0bffe17 	ldw	r2,-8(fp)
  802bb8:	100d883a 	mov	r6,r2
  802bbc:	e17ffd17 	ldw	r5,-12(fp)
  802bc0:	e13ffc17 	ldw	r4,-16(fp)
  802bc4:	08031680 	call	803168 <prvWriteBytesToBuffer>
  802bc8:	e0bffb15 	stw	r2,-20(fp)
  802bcc:	00000106 	br	802bd4 <prvWriteMessageToBuffer+0xbc>
	}
	else
	{
		xReturn = 0;
  802bd0:	e03ffb15 	stw	zero,-20(fp)
	}

	return xReturn;
  802bd4:	e0bffb17 	ldw	r2,-20(fp)
}
  802bd8:	e037883a 	mov	sp,fp
  802bdc:	dfc00117 	ldw	ra,4(sp)
  802be0:	df000017 	ldw	fp,0(sp)
  802be4:	dec00204 	addi	sp,sp,8
  802be8:	f800283a 	ret

00802bec <xStreamBufferReceive>:

size_t xStreamBufferReceive( StreamBufferHandle_t xStreamBuffer,
							 void *pvRxData,
							 size_t xBufferLengthBytes,
							 TickType_t xTicksToWait )
{
  802bec:	defff504 	addi	sp,sp,-44
  802bf0:	dfc00a15 	stw	ra,40(sp)
  802bf4:	df000915 	stw	fp,36(sp)
  802bf8:	df000904 	addi	fp,sp,36
  802bfc:	e13ffc15 	stw	r4,-16(fp)
  802c00:	e17ffd15 	stw	r5,-12(fp)
  802c04:	e1bffe15 	stw	r6,-8(fp)
  802c08:	e1ffff15 	stw	r7,-4(fp)
StreamBuffer_t * const pxStreamBuffer = xStreamBuffer;
  802c0c:	e0bffc17 	ldw	r2,-16(fp)
  802c10:	e0bffb15 	stw	r2,-20(fp)
size_t xReceivedLength = 0, xBytesAvailable, xBytesToStoreMessageLength;
  802c14:	e03ff815 	stw	zero,-32(fp)
	/* This receive function is used by both message buffers, which store
	discrete messages, and stream buffers, which store a continuous stream of
	bytes.  Discrete messages include an additional
	sbBYTES_TO_STORE_MESSAGE_LENGTH bytes that hold the length of the
	message. */
	if( ( pxStreamBuffer->ucFlags & sbFLAGS_IS_MESSAGE_BUFFER ) != ( uint8_t ) 0 )
  802c18:	e0bffb17 	ldw	r2,-20(fp)
  802c1c:	10800703 	ldbu	r2,28(r2)
  802c20:	10803fcc 	andi	r2,r2,255
  802c24:	1080004c 	andi	r2,r2,1
  802c28:	10000326 	beq	r2,zero,802c38 <xStreamBufferReceive+0x4c>
	{
		xBytesToStoreMessageLength = sbBYTES_TO_STORE_MESSAGE_LENGTH;
  802c2c:	00800104 	movi	r2,4
  802c30:	e0bffa15 	stw	r2,-24(fp)
  802c34:	00000106 	br	802c3c <xStreamBufferReceive+0x50>
	}
	else
	{
		xBytesToStoreMessageLength = 0;
  802c38:	e03ffa15 	stw	zero,-24(fp)
	}

	if( xTicksToWait != ( TickType_t ) 0 )
  802c3c:	e0bfff17 	ldw	r2,-4(fp)
  802c40:	10001c26 	beq	r2,zero,802cb4 <xStreamBufferReceive+0xc8>
	{
		/* Checking if there is data and clearing the notification state must be
		performed atomically. */
		taskENTER_CRITICAL();
  802c44:	0804ff40 	call	804ff4 <vTaskEnterCritical>
		{
			xBytesAvailable = prvBytesInBuffer( pxStreamBuffer );
  802c48:	e13ffb17 	ldw	r4,-20(fp)
  802c4c:	08033700 	call	803370 <prvBytesInBuffer>
  802c50:	e0bff915 	stw	r2,-28(fp)
			/* If this function was invoked by a message buffer read then
			xBytesToStoreMessageLength holds the number of bytes used to hold
			the length of the next discrete message.  If this function was
			invoked by a stream buffer read then xBytesToStoreMessageLength will
			be 0. */
			if( xBytesAvailable <= xBytesToStoreMessageLength )
  802c54:	e0bff917 	ldw	r2,-28(fp)
  802c58:	e0fffa17 	ldw	r3,-24(fp)
  802c5c:	18800636 	bltu	r3,r2,802c78 <xStreamBufferReceive+0x8c>
			{
				/* Clear notification state as going to wait for data. */
				( void ) xTaskNotifyStateClear( NULL );
  802c60:	0009883a 	mov	r4,zero
  802c64:	08057780 	call	805778 <xTaskNotifyStateClear>

				/* Should only be one reader. */
				configASSERT( pxStreamBuffer->xTaskWaitingToReceive == NULL );
				pxStreamBuffer->xTaskWaitingToReceive = xTaskGetCurrentTaskHandle();
  802c68:	0804c500 	call	804c50 <xTaskGetCurrentTaskHandle>
  802c6c:	1007883a 	mov	r3,r2
  802c70:	e0bffb17 	ldw	r2,-20(fp)
  802c74:	10c00415 	stw	r3,16(r2)
			else
			{
				mtCOVERAGE_TEST_MARKER();
			}
		}
		taskEXIT_CRITICAL();
  802c78:	08050480 	call	805048 <vTaskExitCritical>

		if( xBytesAvailable <= xBytesToStoreMessageLength )
  802c7c:	e0bff917 	ldw	r2,-28(fp)
  802c80:	e0fffa17 	ldw	r3,-24(fp)
  802c84:	18800e36 	bltu	r3,r2,802cc0 <xStreamBufferReceive+0xd4>
		{
			/* Wait for data to be available. */
			traceBLOCKING_ON_STREAM_BUFFER_RECEIVE( xStreamBuffer );
			( void ) xTaskNotifyWait( ( uint32_t ) 0, ( uint32_t ) 0, NULL, xTicksToWait );
  802c88:	e1ffff17 	ldw	r7,-4(fp)
  802c8c:	000d883a 	mov	r6,zero
  802c90:	000b883a 	mov	r5,zero
  802c94:	0009883a 	mov	r4,zero
  802c98:	08051d40 	call	8051d4 <xTaskNotifyWait>
			pxStreamBuffer->xTaskWaitingToReceive = NULL;
  802c9c:	e0bffb17 	ldw	r2,-20(fp)
  802ca0:	10000415 	stw	zero,16(r2)

			/* Recheck the data available after blocking. */
			xBytesAvailable = prvBytesInBuffer( pxStreamBuffer );
  802ca4:	e13ffb17 	ldw	r4,-20(fp)
  802ca8:	08033700 	call	803370 <prvBytesInBuffer>
  802cac:	e0bff915 	stw	r2,-28(fp)
  802cb0:	00000306 	br	802cc0 <xStreamBufferReceive+0xd4>
			mtCOVERAGE_TEST_MARKER();
		}
	}
	else
	{
		xBytesAvailable = prvBytesInBuffer( pxStreamBuffer );
  802cb4:	e13ffb17 	ldw	r4,-20(fp)
  802cb8:	08033700 	call	803370 <prvBytesInBuffer>
  802cbc:	e0bff915 	stw	r2,-28(fp)
	/* Whether receiving a discrete message (where xBytesToStoreMessageLength
	holds the number of bytes used to store the message length) or a stream of
	bytes (where xBytesToStoreMessageLength is zero), the number of bytes
	available must be greater than xBytesToStoreMessageLength to be able to
	read bytes from the buffer. */
	if( xBytesAvailable > xBytesToStoreMessageLength )
  802cc0:	e0bff917 	ldw	r2,-28(fp)
  802cc4:	e0fffa17 	ldw	r3,-24(fp)
  802cc8:	1880182e 	bgeu	r3,r2,802d2c <xStreamBufferReceive+0x140>
	{
		xReceivedLength = prvReadMessageFromBuffer( pxStreamBuffer, pvRxData, xBufferLengthBytes, xBytesAvailable, xBytesToStoreMessageLength );
  802ccc:	e0bffa17 	ldw	r2,-24(fp)
  802cd0:	d8800015 	stw	r2,0(sp)
  802cd4:	e1fff917 	ldw	r7,-28(fp)
  802cd8:	e1bffe17 	ldw	r6,-8(fp)
  802cdc:	e17ffd17 	ldw	r5,-12(fp)
  802ce0:	e13ffb17 	ldw	r4,-20(fp)
  802ce4:	0802ed00 	call	802ed0 <prvReadMessageFromBuffer>
  802ce8:	e0bff815 	stw	r2,-32(fp)

		/* Was a task waiting for space in the buffer? */
		if( xReceivedLength != ( size_t ) 0 )
  802cec:	e0bff817 	ldw	r2,-32(fp)
  802cf0:	10000e26 	beq	r2,zero,802d2c <xStreamBufferReceive+0x140>
		{
			traceSTREAM_BUFFER_RECEIVE( xStreamBuffer, xReceivedLength );
			sbRECEIVE_COMPLETED( pxStreamBuffer );
  802cf4:	08040940 	call	804094 <vTaskSuspendAll>
  802cf8:	e0bffb17 	ldw	r2,-20(fp)
  802cfc:	10800517 	ldw	r2,20(r2)
  802d00:	10000926 	beq	r2,zero,802d28 <xStreamBufferReceive+0x13c>
  802d04:	e0bffb17 	ldw	r2,-20(fp)
  802d08:	10800517 	ldw	r2,20(r2)
  802d0c:	000f883a 	mov	r7,zero
  802d10:	000d883a 	mov	r6,zero
  802d14:	000b883a 	mov	r5,zero
  802d18:	1009883a 	mov	r4,r2
  802d1c:	08052c80 	call	8052c8 <xTaskGenericNotify>
  802d20:	e0bffb17 	ldw	r2,-20(fp)
  802d24:	10000515 	stw	zero,20(r2)
  802d28:	08040c00 	call	8040c0 <xTaskResumeAll>
	{
		traceSTREAM_BUFFER_RECEIVE_FAILED( xStreamBuffer );
		mtCOVERAGE_TEST_MARKER();
	}

	return xReceivedLength;
  802d2c:	e0bff817 	ldw	r2,-32(fp)
}
  802d30:	e037883a 	mov	sp,fp
  802d34:	dfc00117 	ldw	ra,4(sp)
  802d38:	df000017 	ldw	fp,0(sp)
  802d3c:	dec00204 	addi	sp,sp,8
  802d40:	f800283a 	ret

00802d44 <xStreamBufferNextMessageLengthBytes>:
/*-----------------------------------------------------------*/

size_t xStreamBufferNextMessageLengthBytes( StreamBufferHandle_t xStreamBuffer )
{
  802d44:	defff804 	addi	sp,sp,-32
  802d48:	dfc00715 	stw	ra,28(sp)
  802d4c:	df000615 	stw	fp,24(sp)
  802d50:	df000604 	addi	fp,sp,24
  802d54:	e13fff15 	stw	r4,-4(fp)
StreamBuffer_t * const pxStreamBuffer = xStreamBuffer;
  802d58:	e0bfff17 	ldw	r2,-4(fp)
  802d5c:	e0bffb15 	stw	r2,-20(fp)
configMESSAGE_BUFFER_LENGTH_TYPE xTempReturn;

	configASSERT( pxStreamBuffer );

	/* Ensure the stream buffer is being used as a message buffer. */
	if( ( pxStreamBuffer->ucFlags & sbFLAGS_IS_MESSAGE_BUFFER ) != ( uint8_t ) 0 )
  802d60:	e0bffb17 	ldw	r2,-20(fp)
  802d64:	10800703 	ldbu	r2,28(r2)
  802d68:	10803fcc 	andi	r2,r2,255
  802d6c:	1080004c 	andi	r2,r2,1
  802d70:	10001726 	beq	r2,zero,802dd0 <xStreamBufferNextMessageLengthBytes+0x8c>
	{
		xBytesAvailable = prvBytesInBuffer( pxStreamBuffer );
  802d74:	e13ffb17 	ldw	r4,-20(fp)
  802d78:	08033700 	call	803370 <prvBytesInBuffer>
  802d7c:	e0bffc15 	stw	r2,-16(fp)
		if( xBytesAvailable > sbBYTES_TO_STORE_MESSAGE_LENGTH )
  802d80:	e0bffc17 	ldw	r2,-16(fp)
  802d84:	10800170 	cmpltui	r2,r2,5
  802d88:	10000f1e 	bne	r2,zero,802dc8 <xStreamBufferNextMessageLengthBytes+0x84>
			required to hold the length of the next message, so another message
			is available.  Return its length without removing the length bytes
			from the buffer.  A copy of the tail is stored so the buffer can be
			returned to its prior state as the message is not actually being
			removed from the buffer. */
			xOriginalTail = pxStreamBuffer->xTail;
  802d8c:	e0bffb17 	ldw	r2,-20(fp)
  802d90:	10800017 	ldw	r2,0(r2)
  802d94:	e0bffd15 	stw	r2,-12(fp)
			( void ) prvReadBytesFromBuffer( pxStreamBuffer, ( uint8_t * ) &xTempReturn, sbBYTES_TO_STORE_MESSAGE_LENGTH, xBytesAvailable );
  802d98:	e0bffe04 	addi	r2,fp,-8
  802d9c:	e1fffc17 	ldw	r7,-16(fp)
  802da0:	01800104 	movi	r6,4
  802da4:	100b883a 	mov	r5,r2
  802da8:	e13ffb17 	ldw	r4,-20(fp)
  802dac:	080325c0 	call	80325c <prvReadBytesFromBuffer>
			xReturn = ( size_t ) xTempReturn;
  802db0:	e0bffe17 	ldw	r2,-8(fp)
  802db4:	e0bffa15 	stw	r2,-24(fp)
			pxStreamBuffer->xTail = xOriginalTail;
  802db8:	e0bffb17 	ldw	r2,-20(fp)
  802dbc:	e0fffd17 	ldw	r3,-12(fp)
  802dc0:	10c00015 	stw	r3,0(r2)
  802dc4:	00000306 	br	802dd4 <xStreamBufferNextMessageLengthBytes+0x90>
			/* The minimum amount of bytes in a message buffer is
			( sbBYTES_TO_STORE_MESSAGE_LENGTH + 1 ), so if xBytesAvailable is
			less than sbBYTES_TO_STORE_MESSAGE_LENGTH the only other valid
			value is 0. */
			configASSERT( xBytesAvailable == 0 );
			xReturn = 0;
  802dc8:	e03ffa15 	stw	zero,-24(fp)
  802dcc:	00000106 	br	802dd4 <xStreamBufferNextMessageLengthBytes+0x90>
		}
	}
	else
	{
		xReturn = 0;
  802dd0:	e03ffa15 	stw	zero,-24(fp)
	}

	return xReturn;
  802dd4:	e0bffa17 	ldw	r2,-24(fp)
}
  802dd8:	e037883a 	mov	sp,fp
  802ddc:	dfc00117 	ldw	ra,4(sp)
  802de0:	df000017 	ldw	fp,0(sp)
  802de4:	dec00204 	addi	sp,sp,8
  802de8:	f800283a 	ret

00802dec <xStreamBufferReceiveFromISR>:

size_t xStreamBufferReceiveFromISR( StreamBufferHandle_t xStreamBuffer,
									void *pvRxData,
									size_t xBufferLengthBytes,
									BaseType_t * const pxHigherPriorityTaskWoken )
{
  802dec:	defff404 	addi	sp,sp,-48
  802df0:	dfc00b15 	stw	ra,44(sp)
  802df4:	df000a15 	stw	fp,40(sp)
  802df8:	df000a04 	addi	fp,sp,40
  802dfc:	e13ffc15 	stw	r4,-16(fp)
  802e00:	e17ffd15 	stw	r5,-12(fp)
  802e04:	e1bffe15 	stw	r6,-8(fp)
  802e08:	e1ffff15 	stw	r7,-4(fp)
StreamBuffer_t * const pxStreamBuffer = xStreamBuffer;
  802e0c:	e0bffc17 	ldw	r2,-16(fp)
  802e10:	e0bff915 	stw	r2,-28(fp)
size_t xReceivedLength = 0, xBytesAvailable, xBytesToStoreMessageLength;
  802e14:	e03ff715 	stw	zero,-36(fp)
	/* This receive function is used by both message buffers, which store
	discrete messages, and stream buffers, which store a continuous stream of
	bytes.  Discrete messages include an additional
	sbBYTES_TO_STORE_MESSAGE_LENGTH bytes that hold the length of the
	message. */
	if( ( pxStreamBuffer->ucFlags & sbFLAGS_IS_MESSAGE_BUFFER ) != ( uint8_t ) 0 )
  802e18:	e0bff917 	ldw	r2,-28(fp)
  802e1c:	10800703 	ldbu	r2,28(r2)
  802e20:	10803fcc 	andi	r2,r2,255
  802e24:	1080004c 	andi	r2,r2,1
  802e28:	10000326 	beq	r2,zero,802e38 <xStreamBufferReceiveFromISR+0x4c>
	{
		xBytesToStoreMessageLength = sbBYTES_TO_STORE_MESSAGE_LENGTH;
  802e2c:	00800104 	movi	r2,4
  802e30:	e0bff815 	stw	r2,-32(fp)
  802e34:	00000106 	br	802e3c <xStreamBufferReceiveFromISR+0x50>
	}
	else
	{
		xBytesToStoreMessageLength = 0;
  802e38:	e03ff815 	stw	zero,-32(fp)
	}

	xBytesAvailable = prvBytesInBuffer( pxStreamBuffer );
  802e3c:	e13ff917 	ldw	r4,-28(fp)
  802e40:	08033700 	call	803370 <prvBytesInBuffer>
  802e44:	e0bffa15 	stw	r2,-24(fp)
	/* Whether receiving a discrete message (where xBytesToStoreMessageLength
	holds the number of bytes used to store the message length) or a stream of
	bytes (where xBytesToStoreMessageLength is zero), the number of bytes
	available must be greater than xBytesToStoreMessageLength to be able to
	read bytes from the buffer. */
	if( xBytesAvailable > xBytesToStoreMessageLength )
  802e48:	e0bffa17 	ldw	r2,-24(fp)
  802e4c:	e0fff817 	ldw	r3,-32(fp)
  802e50:	1880192e 	bgeu	r3,r2,802eb8 <xStreamBufferReceiveFromISR+0xcc>
	{
		xReceivedLength = prvReadMessageFromBuffer( pxStreamBuffer, pvRxData, xBufferLengthBytes, xBytesAvailable, xBytesToStoreMessageLength );
  802e54:	e0bff817 	ldw	r2,-32(fp)
  802e58:	d8800015 	stw	r2,0(sp)
  802e5c:	e1fffa17 	ldw	r7,-24(fp)
  802e60:	e1bffe17 	ldw	r6,-8(fp)
  802e64:	e17ffd17 	ldw	r5,-12(fp)
  802e68:	e13ff917 	ldw	r4,-28(fp)
  802e6c:	0802ed00 	call	802ed0 <prvReadMessageFromBuffer>
  802e70:	e0bff715 	stw	r2,-36(fp)

		/* Was a task waiting for space in the buffer? */
		if( xReceivedLength != ( size_t ) 0 )
  802e74:	e0bff717 	ldw	r2,-36(fp)
  802e78:	10000f26 	beq	r2,zero,802eb8 <xStreamBufferReceiveFromISR+0xcc>
		{
			sbRECEIVE_COMPLETED_FROM_ISR( pxStreamBuffer, pxHigherPriorityTaskWoken );
  802e7c:	e03ffb15 	stw	zero,-20(fp)
  802e80:	e0bff917 	ldw	r2,-28(fp)
  802e84:	10800517 	ldw	r2,20(r2)
  802e88:	10000b26 	beq	r2,zero,802eb8 <xStreamBufferReceiveFromISR+0xcc>
  802e8c:	e0bff917 	ldw	r2,-28(fp)
  802e90:	10c00517 	ldw	r3,20(r2)
  802e94:	e0bfff17 	ldw	r2,-4(fp)
  802e98:	d8800015 	stw	r2,0(sp)
  802e9c:	000f883a 	mov	r7,zero
  802ea0:	000d883a 	mov	r6,zero
  802ea4:	000b883a 	mov	r5,zero
  802ea8:	1809883a 	mov	r4,r3
  802eac:	08054740 	call	805474 <xTaskGenericNotifyFromISR>
  802eb0:	e0bff917 	ldw	r2,-28(fp)
  802eb4:	10000515 	stw	zero,20(r2)
		mtCOVERAGE_TEST_MARKER();
	}

	traceSTREAM_BUFFER_RECEIVE_FROM_ISR( xStreamBuffer, xReceivedLength );

	return xReceivedLength;
  802eb8:	e0bff717 	ldw	r2,-36(fp)
}
  802ebc:	e037883a 	mov	sp,fp
  802ec0:	dfc00117 	ldw	ra,4(sp)
  802ec4:	df000017 	ldw	fp,0(sp)
  802ec8:	dec00204 	addi	sp,sp,8
  802ecc:	f800283a 	ret

00802ed0 <prvReadMessageFromBuffer>:
static size_t prvReadMessageFromBuffer( StreamBuffer_t *pxStreamBuffer,
										void *pvRxData,
										size_t xBufferLengthBytes,
										size_t xBytesAvailable,
										size_t xBytesToStoreMessageLength )
{
  802ed0:	defff604 	addi	sp,sp,-40
  802ed4:	dfc00915 	stw	ra,36(sp)
  802ed8:	df000815 	stw	fp,32(sp)
  802edc:	df000804 	addi	fp,sp,32
  802ee0:	e13ffc15 	stw	r4,-16(fp)
  802ee4:	e17ffd15 	stw	r5,-12(fp)
  802ee8:	e1bffe15 	stw	r6,-8(fp)
  802eec:	e1ffff15 	stw	r7,-4(fp)
size_t xOriginalTail, xReceivedLength, xNextMessageLength;
configMESSAGE_BUFFER_LENGTH_TYPE xTempNextMessageLength;

	if( xBytesToStoreMessageLength != ( size_t ) 0 )
  802ef0:	e0800217 	ldw	r2,8(fp)
  802ef4:	10001726 	beq	r2,zero,802f54 <prvReadMessageFromBuffer+0x84>
	{
		/* A discrete message is being received.  First receive the length
		of the message.  A copy of the tail is stored so the buffer can be
		returned to its prior state if the length of the message is too
		large for the provided buffer. */
		xOriginalTail = pxStreamBuffer->xTail;
  802ef8:	e0bffc17 	ldw	r2,-16(fp)
  802efc:	10800017 	ldw	r2,0(r2)
  802f00:	e0bff915 	stw	r2,-28(fp)
		( void ) prvReadBytesFromBuffer( pxStreamBuffer, ( uint8_t * ) &xTempNextMessageLength, xBytesToStoreMessageLength, xBytesAvailable );
  802f04:	e0bffb04 	addi	r2,fp,-20
  802f08:	e1ffff17 	ldw	r7,-4(fp)
  802f0c:	e1800217 	ldw	r6,8(fp)
  802f10:	100b883a 	mov	r5,r2
  802f14:	e13ffc17 	ldw	r4,-16(fp)
  802f18:	080325c0 	call	80325c <prvReadBytesFromBuffer>
		xNextMessageLength = ( size_t ) xTempNextMessageLength;
  802f1c:	e0bffb17 	ldw	r2,-20(fp)
  802f20:	e0bff815 	stw	r2,-32(fp)

		/* Reduce the number of bytes available by the number of bytes just
		read out. */
		xBytesAvailable -= xBytesToStoreMessageLength;
  802f24:	e0ffff17 	ldw	r3,-4(fp)
  802f28:	e0800217 	ldw	r2,8(fp)
  802f2c:	1885c83a 	sub	r2,r3,r2
  802f30:	e0bfff15 	stw	r2,-4(fp)

		/* Check there is enough space in the buffer provided by the
		user. */
		if( xNextMessageLength > xBufferLengthBytes )
  802f34:	e0bff817 	ldw	r2,-32(fp)
  802f38:	e0fffe17 	ldw	r3,-8(fp)
  802f3c:	1880072e 	bgeu	r3,r2,802f5c <prvReadMessageFromBuffer+0x8c>
		{
			/* The user has provided insufficient space to read the message
			so return the buffer to its previous state (so the length of
			the message is in the buffer again). */
			pxStreamBuffer->xTail = xOriginalTail;
  802f40:	e0bffc17 	ldw	r2,-16(fp)
  802f44:	e0fff917 	ldw	r3,-28(fp)
  802f48:	10c00015 	stw	r3,0(r2)
			xNextMessageLength = 0;
  802f4c:	e03ff815 	stw	zero,-32(fp)
  802f50:	00000206 	br	802f5c <prvReadMessageFromBuffer+0x8c>
	}
	else
	{
		/* A stream of bytes is being received (as opposed to a discrete
		message), so read as many bytes as possible. */
		xNextMessageLength = xBufferLengthBytes;
  802f54:	e0bffe17 	ldw	r2,-8(fp)
  802f58:	e0bff815 	stw	r2,-32(fp)
	}

	/* Read the actual data. */
	xReceivedLength = prvReadBytesFromBuffer( pxStreamBuffer, ( uint8_t * ) pvRxData, xNextMessageLength, xBytesAvailable ); /*lint !e9079 Data storage area is implemented as uint8_t array for ease of sizing, indexing and alignment. */
  802f5c:	e1ffff17 	ldw	r7,-4(fp)
  802f60:	e1bff817 	ldw	r6,-32(fp)
  802f64:	e17ffd17 	ldw	r5,-12(fp)
  802f68:	e13ffc17 	ldw	r4,-16(fp)
  802f6c:	080325c0 	call	80325c <prvReadBytesFromBuffer>
  802f70:	e0bffa15 	stw	r2,-24(fp)

	return xReceivedLength;
  802f74:	e0bffa17 	ldw	r2,-24(fp)
}
  802f78:	e037883a 	mov	sp,fp
  802f7c:	dfc00117 	ldw	ra,4(sp)
  802f80:	df000017 	ldw	fp,0(sp)
  802f84:	dec00204 	addi	sp,sp,8
  802f88:	f800283a 	ret

00802f8c <xStreamBufferIsEmpty>:
/*-----------------------------------------------------------*/

BaseType_t xStreamBufferIsEmpty( StreamBufferHandle_t xStreamBuffer )
{
  802f8c:	defffb04 	addi	sp,sp,-20
  802f90:	df000415 	stw	fp,16(sp)
  802f94:	df000404 	addi	fp,sp,16
  802f98:	e13fff15 	stw	r4,-4(fp)
const StreamBuffer_t * const pxStreamBuffer = xStreamBuffer;
  802f9c:	e0bfff17 	ldw	r2,-4(fp)
  802fa0:	e0bffd15 	stw	r2,-12(fp)
size_t xTail;

	configASSERT( pxStreamBuffer );

	/* True if no bytes are available. */
	xTail = pxStreamBuffer->xTail;
  802fa4:	e0bffd17 	ldw	r2,-12(fp)
  802fa8:	10800017 	ldw	r2,0(r2)
  802fac:	e0bffe15 	stw	r2,-8(fp)
	if( pxStreamBuffer->xHead == xTail )
  802fb0:	e0bffd17 	ldw	r2,-12(fp)
  802fb4:	10c00117 	ldw	r3,4(r2)
  802fb8:	e0bffe17 	ldw	r2,-8(fp)
  802fbc:	1880031e 	bne	r3,r2,802fcc <xStreamBufferIsEmpty+0x40>
	{
		xReturn = pdTRUE;
  802fc0:	00800044 	movi	r2,1
  802fc4:	e0bffc15 	stw	r2,-16(fp)
  802fc8:	00000106 	br	802fd0 <xStreamBufferIsEmpty+0x44>
	}
	else
	{
		xReturn = pdFALSE;
  802fcc:	e03ffc15 	stw	zero,-16(fp)
	}

	return xReturn;
  802fd0:	e0bffc17 	ldw	r2,-16(fp)
}
  802fd4:	e037883a 	mov	sp,fp
  802fd8:	df000017 	ldw	fp,0(sp)
  802fdc:	dec00104 	addi	sp,sp,4
  802fe0:	f800283a 	ret

00802fe4 <xStreamBufferIsFull>:
/*-----------------------------------------------------------*/

BaseType_t xStreamBufferIsFull( StreamBufferHandle_t xStreamBuffer )
{
  802fe4:	defffa04 	addi	sp,sp,-24
  802fe8:	dfc00515 	stw	ra,20(sp)
  802fec:	df000415 	stw	fp,16(sp)
  802ff0:	df000404 	addi	fp,sp,16
  802ff4:	e13fff15 	stw	r4,-4(fp)
BaseType_t xReturn;
size_t xBytesToStoreMessageLength;
const StreamBuffer_t * const pxStreamBuffer = xStreamBuffer;
  802ff8:	e0bfff17 	ldw	r2,-4(fp)
  802ffc:	e0bffe15 	stw	r2,-8(fp)

	/* This generic version of the receive function is used by both message
	buffers, which store discrete messages, and stream buffers, which store a
	continuous stream of bytes.  Discrete messages include an additional
	sbBYTES_TO_STORE_MESSAGE_LENGTH bytes that hold the length of the message. */
	if( ( pxStreamBuffer->ucFlags & sbFLAGS_IS_MESSAGE_BUFFER ) != ( uint8_t ) 0 )
  803000:	e0bffe17 	ldw	r2,-8(fp)
  803004:	10800703 	ldbu	r2,28(r2)
  803008:	10803fcc 	andi	r2,r2,255
  80300c:	1080004c 	andi	r2,r2,1
  803010:	10000326 	beq	r2,zero,803020 <xStreamBufferIsFull+0x3c>
	{
		xBytesToStoreMessageLength = sbBYTES_TO_STORE_MESSAGE_LENGTH;
  803014:	00800104 	movi	r2,4
  803018:	e0bffd15 	stw	r2,-12(fp)
  80301c:	00000106 	br	803024 <xStreamBufferIsFull+0x40>
	}
	else
	{
		xBytesToStoreMessageLength = 0;
  803020:	e03ffd15 	stw	zero,-12(fp)
	}

	/* True if the available space equals zero. */
	if( xStreamBufferSpacesAvailable( xStreamBuffer ) <= xBytesToStoreMessageLength )
  803024:	e13fff17 	ldw	r4,-4(fp)
  803028:	08027d80 	call	8027d8 <xStreamBufferSpacesAvailable>
  80302c:	1007883a 	mov	r3,r2
  803030:	e0bffd17 	ldw	r2,-12(fp)
  803034:	10c00336 	bltu	r2,r3,803044 <xStreamBufferIsFull+0x60>
	{
		xReturn = pdTRUE;
  803038:	00800044 	movi	r2,1
  80303c:	e0bffc15 	stw	r2,-16(fp)
  803040:	00000106 	br	803048 <xStreamBufferIsFull+0x64>
	}
	else
	{
		xReturn = pdFALSE;
  803044:	e03ffc15 	stw	zero,-16(fp)
	}

	return xReturn;
  803048:	e0bffc17 	ldw	r2,-16(fp)
}
  80304c:	e037883a 	mov	sp,fp
  803050:	dfc00117 	ldw	ra,4(sp)
  803054:	df000017 	ldw	fp,0(sp)
  803058:	dec00204 	addi	sp,sp,8
  80305c:	f800283a 	ret

00803060 <xStreamBufferSendCompletedFromISR>:
/*-----------------------------------------------------------*/

BaseType_t xStreamBufferSendCompletedFromISR( StreamBufferHandle_t xStreamBuffer, BaseType_t *pxHigherPriorityTaskWoken )
{
  803060:	defff804 	addi	sp,sp,-32
  803064:	dfc00715 	stw	ra,28(sp)
  803068:	df000615 	stw	fp,24(sp)
  80306c:	df000604 	addi	fp,sp,24
  803070:	e13ffe15 	stw	r4,-8(fp)
  803074:	e17fff15 	stw	r5,-4(fp)
StreamBuffer_t * const pxStreamBuffer = xStreamBuffer;
  803078:	e0bffe17 	ldw	r2,-8(fp)
  80307c:	e0bffc15 	stw	r2,-16(fp)
BaseType_t xReturn;
UBaseType_t uxSavedInterruptStatus;

	configASSERT( pxStreamBuffer );

	uxSavedInterruptStatus = ( UBaseType_t ) portSET_INTERRUPT_MASK_FROM_ISR();
  803080:	e03ffd15 	stw	zero,-12(fp)
	{
		if( ( pxStreamBuffer )->xTaskWaitingToReceive != NULL )
  803084:	e0bffc17 	ldw	r2,-16(fp)
  803088:	10800417 	ldw	r2,16(r2)
  80308c:	10000e26 	beq	r2,zero,8030c8 <xStreamBufferSendCompletedFromISR+0x68>
		{
			( void ) xTaskNotifyFromISR( ( pxStreamBuffer )->xTaskWaitingToReceive,
  803090:	e0bffc17 	ldw	r2,-16(fp)
  803094:	10c00417 	ldw	r3,16(r2)
  803098:	e0bfff17 	ldw	r2,-4(fp)
  80309c:	d8800015 	stw	r2,0(sp)
  8030a0:	000f883a 	mov	r7,zero
  8030a4:	000d883a 	mov	r6,zero
  8030a8:	000b883a 	mov	r5,zero
  8030ac:	1809883a 	mov	r4,r3
  8030b0:	08054740 	call	805474 <xTaskGenericNotifyFromISR>
										 ( uint32_t ) 0,
										 eNoAction,
										 pxHigherPriorityTaskWoken );
			( pxStreamBuffer )->xTaskWaitingToReceive = NULL;
  8030b4:	e0bffc17 	ldw	r2,-16(fp)
  8030b8:	10000415 	stw	zero,16(r2)
			xReturn = pdTRUE;
  8030bc:	00800044 	movi	r2,1
  8030c0:	e0bffb15 	stw	r2,-20(fp)
  8030c4:	00000106 	br	8030cc <xStreamBufferSendCompletedFromISR+0x6c>
		}
		else
		{
			xReturn = pdFALSE;
  8030c8:	e03ffb15 	stw	zero,-20(fp)
		}
	}
	portCLEAR_INTERRUPT_MASK_FROM_ISR( uxSavedInterruptStatus );

	return xReturn;
  8030cc:	e0bffb17 	ldw	r2,-20(fp)
}
  8030d0:	e037883a 	mov	sp,fp
  8030d4:	dfc00117 	ldw	ra,4(sp)
  8030d8:	df000017 	ldw	fp,0(sp)
  8030dc:	dec00204 	addi	sp,sp,8
  8030e0:	f800283a 	ret

008030e4 <xStreamBufferReceiveCompletedFromISR>:
/*-----------------------------------------------------------*/

BaseType_t xStreamBufferReceiveCompletedFromISR( StreamBufferHandle_t xStreamBuffer, BaseType_t *pxHigherPriorityTaskWoken )
{
  8030e4:	defff804 	addi	sp,sp,-32
  8030e8:	dfc00715 	stw	ra,28(sp)
  8030ec:	df000615 	stw	fp,24(sp)
  8030f0:	df000604 	addi	fp,sp,24
  8030f4:	e13ffe15 	stw	r4,-8(fp)
  8030f8:	e17fff15 	stw	r5,-4(fp)
StreamBuffer_t * const pxStreamBuffer = xStreamBuffer;
  8030fc:	e0bffe17 	ldw	r2,-8(fp)
  803100:	e0bffc15 	stw	r2,-16(fp)
BaseType_t xReturn;
UBaseType_t uxSavedInterruptStatus;

	configASSERT( pxStreamBuffer );

	uxSavedInterruptStatus = ( UBaseType_t ) portSET_INTERRUPT_MASK_FROM_ISR();
  803104:	e03ffd15 	stw	zero,-12(fp)
	{
		if( ( pxStreamBuffer )->xTaskWaitingToSend != NULL )
  803108:	e0bffc17 	ldw	r2,-16(fp)
  80310c:	10800517 	ldw	r2,20(r2)
  803110:	10000e26 	beq	r2,zero,80314c <xStreamBufferReceiveCompletedFromISR+0x68>
		{
			( void ) xTaskNotifyFromISR( ( pxStreamBuffer )->xTaskWaitingToSend,
  803114:	e0bffc17 	ldw	r2,-16(fp)
  803118:	10c00517 	ldw	r3,20(r2)
  80311c:	e0bfff17 	ldw	r2,-4(fp)
  803120:	d8800015 	stw	r2,0(sp)
  803124:	000f883a 	mov	r7,zero
  803128:	000d883a 	mov	r6,zero
  80312c:	000b883a 	mov	r5,zero
  803130:	1809883a 	mov	r4,r3
  803134:	08054740 	call	805474 <xTaskGenericNotifyFromISR>
										 ( uint32_t ) 0,
										 eNoAction,
										 pxHigherPriorityTaskWoken );
			( pxStreamBuffer )->xTaskWaitingToSend = NULL;
  803138:	e0bffc17 	ldw	r2,-16(fp)
  80313c:	10000515 	stw	zero,20(r2)
			xReturn = pdTRUE;
  803140:	00800044 	movi	r2,1
  803144:	e0bffb15 	stw	r2,-20(fp)
  803148:	00000106 	br	803150 <xStreamBufferReceiveCompletedFromISR+0x6c>
		}
		else
		{
			xReturn = pdFALSE;
  80314c:	e03ffb15 	stw	zero,-20(fp)
		}
	}
	portCLEAR_INTERRUPT_MASK_FROM_ISR( uxSavedInterruptStatus );

	return xReturn;
  803150:	e0bffb17 	ldw	r2,-20(fp)
}
  803154:	e037883a 	mov	sp,fp
  803158:	dfc00117 	ldw	ra,4(sp)
  80315c:	df000017 	ldw	fp,0(sp)
  803160:	dec00204 	addi	sp,sp,8
  803164:	f800283a 	ret

00803168 <prvWriteBytesToBuffer>:
/*-----------------------------------------------------------*/

static size_t prvWriteBytesToBuffer( StreamBuffer_t * const pxStreamBuffer, const uint8_t *pucData, size_t xCount )
{
  803168:	defff904 	addi	sp,sp,-28
  80316c:	dfc00615 	stw	ra,24(sp)
  803170:	df000515 	stw	fp,20(sp)
  803174:	df000504 	addi	fp,sp,20
  803178:	e13ffd15 	stw	r4,-12(fp)
  80317c:	e17ffe15 	stw	r5,-8(fp)
  803180:	e1bfff15 	stw	r6,-4(fp)
size_t xNextHead, xFirstLength;

	configASSERT( xCount > ( size_t ) 0 );

	xNextHead = pxStreamBuffer->xHead;
  803184:	e0bffd17 	ldw	r2,-12(fp)
  803188:	10800117 	ldw	r2,4(r2)
  80318c:	e0bffb15 	stw	r2,-20(fp)

	/* Calculate the number of bytes that can be added in the first write -
	which may be less than the total number of bytes that need to be added if
	the buffer will wrap back to the beginning. */
	xFirstLength = configMIN( pxStreamBuffer->xLength - xNextHead, xCount );
  803190:	e0bffd17 	ldw	r2,-12(fp)
  803194:	10c00217 	ldw	r3,8(r2)
  803198:	e0bffb17 	ldw	r2,-20(fp)
  80319c:	1885c83a 	sub	r2,r3,r2
  8031a0:	e0ffff17 	ldw	r3,-4(fp)
  8031a4:	1880012e 	bgeu	r3,r2,8031ac <prvWriteBytesToBuffer+0x44>
  8031a8:	1805883a 	mov	r2,r3
  8031ac:	e0bffc15 	stw	r2,-16(fp)

	/* Write as many bytes as can be written in the first write. */
	configASSERT( ( xNextHead + xFirstLength ) <= pxStreamBuffer->xLength );
	( void ) memcpy( ( void* ) ( &( pxStreamBuffer->pucBuffer[ xNextHead ] ) ), ( const void * ) pucData, xFirstLength ); /*lint !e9087 memcpy() requires void *. */
  8031b0:	e0bffd17 	ldw	r2,-12(fp)
  8031b4:	10c00617 	ldw	r3,24(r2)
  8031b8:	e0bffb17 	ldw	r2,-20(fp)
  8031bc:	1885883a 	add	r2,r3,r2
  8031c0:	e1bffc17 	ldw	r6,-16(fp)
  8031c4:	e17ffe17 	ldw	r5,-8(fp)
  8031c8:	1009883a 	mov	r4,r2
  8031cc:	08066200 	call	806620 <memcpy>

	/* If the number of bytes written was less than the number that could be
	written in the first write... */
	if( xCount > xFirstLength )
  8031d0:	e0bfff17 	ldw	r2,-4(fp)
  8031d4:	e0fffc17 	ldw	r3,-16(fp)
  8031d8:	18800a2e 	bgeu	r3,r2,803204 <prvWriteBytesToBuffer+0x9c>
	{
		/* ...then write the remaining bytes to the start of the buffer. */
		configASSERT( ( xCount - xFirstLength ) <= pxStreamBuffer->xLength );
		( void ) memcpy( ( void * ) pxStreamBuffer->pucBuffer, ( const void * ) &( pucData[ xFirstLength ] ), xCount - xFirstLength ); /*lint !e9087 memcpy() requires void *. */
  8031dc:	e0bffd17 	ldw	r2,-12(fp)
  8031e0:	11000617 	ldw	r4,24(r2)
  8031e4:	e0fffe17 	ldw	r3,-8(fp)
  8031e8:	e0bffc17 	ldw	r2,-16(fp)
  8031ec:	188b883a 	add	r5,r3,r2
  8031f0:	e0ffff17 	ldw	r3,-4(fp)
  8031f4:	e0bffc17 	ldw	r2,-16(fp)
  8031f8:	1885c83a 	sub	r2,r3,r2
  8031fc:	100d883a 	mov	r6,r2
  803200:	08066200 	call	806620 <memcpy>
	else
	{
		mtCOVERAGE_TEST_MARKER();
	}

	xNextHead += xCount;
  803204:	e0fffb17 	ldw	r3,-20(fp)
  803208:	e0bfff17 	ldw	r2,-4(fp)
  80320c:	1885883a 	add	r2,r3,r2
  803210:	e0bffb15 	stw	r2,-20(fp)
	if( xNextHead >= pxStreamBuffer->xLength )
  803214:	e0bffd17 	ldw	r2,-12(fp)
  803218:	10800217 	ldw	r2,8(r2)
  80321c:	e0fffb17 	ldw	r3,-20(fp)
  803220:	18800536 	bltu	r3,r2,803238 <prvWriteBytesToBuffer+0xd0>
	{
		xNextHead -= pxStreamBuffer->xLength;
  803224:	e0bffd17 	ldw	r2,-12(fp)
  803228:	10800217 	ldw	r2,8(r2)
  80322c:	e0fffb17 	ldw	r3,-20(fp)
  803230:	1885c83a 	sub	r2,r3,r2
  803234:	e0bffb15 	stw	r2,-20(fp)
	else
	{
		mtCOVERAGE_TEST_MARKER();
	}

	pxStreamBuffer->xHead = xNextHead;
  803238:	e0bffd17 	ldw	r2,-12(fp)
  80323c:	e0fffb17 	ldw	r3,-20(fp)
  803240:	10c00115 	stw	r3,4(r2)

	return xCount;
  803244:	e0bfff17 	ldw	r2,-4(fp)
}
